ARM GAS  C:\Users\theri\AppData\Local\Temp\cc3rAykC.s 			page 1


   1              		.cpu cortex-m7
   2              		.eabi_attribute 28, 1
   3              		.eabi_attribute 20, 1
   4              		.eabi_attribute 21, 1
   5              		.eabi_attribute 23, 3
   6              		.eabi_attribute 24, 1
   7              		.eabi_attribute 25, 1
   8              		.eabi_attribute 26, 1
   9              		.eabi_attribute 30, 2
  10              		.eabi_attribute 34, 1
  11              		.eabi_attribute 18, 4
  12              		.file	"DSF.cpp"
  13              		.text
  14              	.Ltext0:
  15              		.cfi_sections	.debug_frame
  16              		.section	.text._ZN5daisy6SwitchD2Ev,"axG",%progbits,_ZN5daisy6SwitchD5Ev,comdat
  17              		.align	1
  18              		.p2align 2,,3
  19              		.weak	_ZN5daisy6SwitchD2Ev
  20              		.arch armv7e-m
  21              		.syntax unified
  22              		.thumb
  23              		.thumb_func
  24              		.fpu fpv5-d16
  26              	_ZN5daisy6SwitchD2Ev:
  27              	.LVL0:
  28              	.LFB1605:
  29              		.file 1 "../../libDaisy//src/hid/switch.h"
   1:../../libDaisy//src/hid/switch.h **** #pragma once
   2:../../libDaisy//src/hid/switch.h **** #ifndef DSY_SWITCH_H
   3:../../libDaisy//src/hid/switch.h **** #define DSY_SWITCH_H
   4:../../libDaisy//src/hid/switch.h **** #include "daisy_core.h"
   5:../../libDaisy//src/hid/switch.h **** #include "per/gpio.h"
   6:../../libDaisy//src/hid/switch.h **** #include "sys/system.h"
   7:../../libDaisy//src/hid/switch.h **** 
   8:../../libDaisy//src/hid/switch.h **** namespace daisy
   9:../../libDaisy//src/hid/switch.h **** {
  10:../../libDaisy//src/hid/switch.h **** /** 
  11:../../libDaisy//src/hid/switch.h ****     Generic Class for handling momentary/latching switches \n 
  12:../../libDaisy//src/hid/switch.h ****     Inspired/influenced by Mutable Instruments (pichenettes) Switch classes
  13:../../libDaisy//src/hid/switch.h ****     @author Stephen Hensley
  14:../../libDaisy//src/hid/switch.h ****     @date December 2019
  15:../../libDaisy//src/hid/switch.h ****     @ingroup controls
  16:../../libDaisy//src/hid/switch.h **** */
  17:../../libDaisy//src/hid/switch.h **** class Switch
  18:../../libDaisy//src/hid/switch.h **** {
  19:../../libDaisy//src/hid/switch.h ****   public:
  20:../../libDaisy//src/hid/switch.h ****     /** Specifies the expected behavior of the switch */
  21:../../libDaisy//src/hid/switch.h ****     enum Type
  22:../../libDaisy//src/hid/switch.h ****     {
  23:../../libDaisy//src/hid/switch.h ****         TYPE_TOGGLE,    /**< & */
  24:../../libDaisy//src/hid/switch.h ****         TYPE_MOMENTARY, /**< & */
  25:../../libDaisy//src/hid/switch.h ****     };
  26:../../libDaisy//src/hid/switch.h ****     /** Specifies whether the pressed is HIGH or LOW. */
  27:../../libDaisy//src/hid/switch.h ****     enum Polarity
  28:../../libDaisy//src/hid/switch.h ****     {
  29:../../libDaisy//src/hid/switch.h ****         POLARITY_NORMAL,   /**< & */
ARM GAS  C:\Users\theri\AppData\Local\Temp\cc3rAykC.s 			page 2


  30:../../libDaisy//src/hid/switch.h ****         POLARITY_INVERTED, /**< & */
  31:../../libDaisy//src/hid/switch.h ****     };
  32:../../libDaisy//src/hid/switch.h **** 
  33:../../libDaisy//src/hid/switch.h ****     /** Specifies whether to use built-in Pull Up/Down resistors to hold button at a given state wh
  34:../../libDaisy//src/hid/switch.h ****     enum Pull
  35:../../libDaisy//src/hid/switch.h ****     {
  36:../../libDaisy//src/hid/switch.h ****         PULL_UP,   /**< & */
  37:../../libDaisy//src/hid/switch.h ****         PULL_DOWN, /**< & */
  38:../../libDaisy//src/hid/switch.h ****         PULL_NONE, /**< & */
  39:../../libDaisy//src/hid/switch.h ****     };
  40:../../libDaisy//src/hid/switch.h **** 
  41:../../libDaisy//src/hid/switch.h ****     Switch() {}
  42:../../libDaisy//src/hid/switch.h ****     ~Switch() {}
  30              		.loc 1 42 5 view -0
  31              		.cfi_startproc
  32              		@ args = 0, pretend = 0, frame = 0
  33              		@ frame_needed = 0, uses_anonymous_args = 0
  34              		@ link register save eliminated.
  35              		.loc 1 42 16 is_stmt 0 view .LVU1
  36 0000 7047     		bx	lr
  37              		.cfi_endproc
  38              	.LFE1605:
  40              		.weak	_ZN5daisy6SwitchD1Ev
  41              		.thumb_set _ZN5daisy6SwitchD1Ev,_ZN5daisy6SwitchD2Ev
  42 0002 00BF     		.section	.text._ZN5daisy3LedD2Ev,"axG",%progbits,_ZN5daisy3LedD5Ev,comdat
  43              		.align	1
  44              		.p2align 2,,3
  45              		.weak	_ZN5daisy3LedD2Ev
  46              		.syntax unified
  47              		.thumb
  48              		.thumb_func
  49              		.fpu fpv5-d16
  51              	_ZN5daisy3LedD2Ev:
  52              	.LVL1:
  53              	.LFB1810:
  54              		.file 2 "../../libDaisy//src/hid/led.h"
   1:../../libDaisy//src/hid/led.h **** 
   2:../../libDaisy//src/hid/led.h **** #pragma once
   3:../../libDaisy//src/hid/led.h **** #ifndef DSY_LED_H
   4:../../libDaisy//src/hid/led.h **** #define DSY_LED_H
   5:../../libDaisy//src/hid/led.h **** #include "daisy_core.h"
   6:../../libDaisy//src/hid/led.h **** #include "per/gpio.h"
   7:../../libDaisy//src/hid/led.h **** 
   8:../../libDaisy//src/hid/led.h **** /* TODO - Get this set up to work with the dev_leddriver stuff as well
   9:../../libDaisy//src/hid/led.h **** - Setup Hardware PWM for pins that have it
  10:../../libDaisy//src/hid/led.h **** */
  11:../../libDaisy//src/hid/led.h **** 
  12:../../libDaisy//src/hid/led.h **** namespace daisy
  13:../../libDaisy//src/hid/led.h **** {
  14:../../libDaisy//src/hid/led.h **** /**
  15:../../libDaisy//src/hid/led.h ****     @brief LED Class providing simple Software PWM ability, etc \n 
  16:../../libDaisy//src/hid/led.h ****     Eventually this will work with hardware PWM, and external LED Driver devices as well.
  17:../../libDaisy//src/hid/led.h ****     @author shensley
  18:../../libDaisy//src/hid/led.h ****     @date March 2020
  19:../../libDaisy//src/hid/led.h ****     @ingroup feedback
  20:../../libDaisy//src/hid/led.h **** */
  21:../../libDaisy//src/hid/led.h **** class Led
ARM GAS  C:\Users\theri\AppData\Local\Temp\cc3rAykC.s 			page 3


  22:../../libDaisy//src/hid/led.h **** {
  23:../../libDaisy//src/hid/led.h ****   public:
  24:../../libDaisy//src/hid/led.h ****     Led() {}
  25:../../libDaisy//src/hid/led.h ****     ~Led() {}
  55              		.loc 2 25 5 is_stmt 1 view -0
  56              		.cfi_startproc
  57              		@ args = 0, pretend = 0, frame = 0
  58              		@ frame_needed = 0, uses_anonymous_args = 0
  59              		@ link register save eliminated.
  60              		.loc 2 25 13 is_stmt 0 view .LVU3
  61 0000 7047     		bx	lr
  62              		.cfi_endproc
  63              	.LFE1810:
  65              		.weak	_ZN5daisy3LedD1Ev
  66              		.thumb_set _ZN5daisy3LedD1Ev,_ZN5daisy3LedD2Ev
  67              		.section	.text._ZN5daisy8patch_sm12DaisyPatchSMD2Ev,"axG",%progbits,_ZN5daisy8patch_sm12DaisyPatch
  68              		.align	1
  69              		.p2align 2,,3
  70              		.weak	_ZN5daisy8patch_sm12DaisyPatchSMD2Ev
  71              		.syntax unified
  72              		.thumb
  73              		.thumb_func
  74              		.fpu fpv5-d16
  76              	_ZN5daisy8patch_sm12DaisyPatchSMD2Ev:
  77              	.LVL2:
  78              	.LFB2528:
  79              		.file 3 "../../libDaisy//src/daisy_patch_sm.h"
   1:../../libDaisy//src/daisy_patch_sm.h **** #pragma once
   2:../../libDaisy//src/daisy_patch_sm.h **** 
   3:../../libDaisy//src/daisy_patch_sm.h **** #include "daisy.h"
   4:../../libDaisy//src/daisy_patch_sm.h **** 
   5:../../libDaisy//src/daisy_patch_sm.h **** namespace daisy
   6:../../libDaisy//src/daisy_patch_sm.h **** {
   7:../../libDaisy//src/daisy_patch_sm.h **** namespace patch_sm
   8:../../libDaisy//src/daisy_patch_sm.h **** {
   9:../../libDaisy//src/daisy_patch_sm.h ****     /** Accessors for the Analog Controls. 
  10:../../libDaisy//src/daisy_patch_sm.h ****      *  These cover the 8x Bipolar CV inputs
  11:../../libDaisy//src/daisy_patch_sm.h ****      *  as well as the 4x 0-3V3 ADC inputs on
  12:../../libDaisy//src/daisy_patch_sm.h ****      *  the hardware 
  13:../../libDaisy//src/daisy_patch_sm.h ****      * 
  14:../../libDaisy//src/daisy_patch_sm.h ****      *  When reading a value with DaisyPatchSM::GetAdcValue()
  15:../../libDaisy//src/daisy_patch_sm.h ****      * 
  16:../../libDaisy//src/daisy_patch_sm.h ****      *  patch.GetAdcValue(patch_sm::CV_1);
  17:../../libDaisy//src/daisy_patch_sm.h ****      */
  18:../../libDaisy//src/daisy_patch_sm.h ****     enum
  19:../../libDaisy//src/daisy_patch_sm.h ****     {
  20:../../libDaisy//src/daisy_patch_sm.h ****         CV_1 = 0,
  21:../../libDaisy//src/daisy_patch_sm.h ****         CV_2,
  22:../../libDaisy//src/daisy_patch_sm.h ****         CV_3,
  23:../../libDaisy//src/daisy_patch_sm.h ****         CV_4,
  24:../../libDaisy//src/daisy_patch_sm.h ****         CV_5,
  25:../../libDaisy//src/daisy_patch_sm.h ****         CV_6,
  26:../../libDaisy//src/daisy_patch_sm.h ****         CV_7,
  27:../../libDaisy//src/daisy_patch_sm.h ****         CV_8,
  28:../../libDaisy//src/daisy_patch_sm.h ****         ADC_9,
  29:../../libDaisy//src/daisy_patch_sm.h ****         ADC_10,
  30:../../libDaisy//src/daisy_patch_sm.h ****         ADC_11,
ARM GAS  C:\Users\theri\AppData\Local\Temp\cc3rAykC.s 			page 4


  31:../../libDaisy//src/daisy_patch_sm.h ****         ADC_12,
  32:../../libDaisy//src/daisy_patch_sm.h ****         ADC_LAST,
  33:../../libDaisy//src/daisy_patch_sm.h ****     };
  34:../../libDaisy//src/daisy_patch_sm.h **** 
  35:../../libDaisy//src/daisy_patch_sm.h ****     /** Enum for addressing the CV Outputs via the WriteCvOut function. */
  36:../../libDaisy//src/daisy_patch_sm.h ****     enum
  37:../../libDaisy//src/daisy_patch_sm.h ****     {
  38:../../libDaisy//src/daisy_patch_sm.h ****         CV_OUT_BOTH = 0,
  39:../../libDaisy//src/daisy_patch_sm.h ****         CV_OUT_1,
  40:../../libDaisy//src/daisy_patch_sm.h ****         CV_OUT_2,
  41:../../libDaisy//src/daisy_patch_sm.h ****     };
  42:../../libDaisy//src/daisy_patch_sm.h **** 
  43:../../libDaisy//src/daisy_patch_sm.h **** 
  44:../../libDaisy//src/daisy_patch_sm.h ****     /** @brief Board support file for DaisyPatchSM hardware
  45:../../libDaisy//src/daisy_patch_sm.h ****      *  @author shensley
  46:../../libDaisy//src/daisy_patch_sm.h ****      *  @ingroup boards
  47:../../libDaisy//src/daisy_patch_sm.h ****      * 
  48:../../libDaisy//src/daisy_patch_sm.h ****      *  Daisy Patch SM is a complete Eurorack module DSP engine.
  49:../../libDaisy//src/daisy_patch_sm.h ****      *  Based on the Daisy Seed, with circuits added for 
  50:../../libDaisy//src/daisy_patch_sm.h ****      *  interfacing directly with eurorack modular synthesizers.
  51:../../libDaisy//src/daisy_patch_sm.h ****      */
  52:../../libDaisy//src/daisy_patch_sm.h ****     class DaisyPatchSM
  53:../../libDaisy//src/daisy_patch_sm.h ****     {
  54:../../libDaisy//src/daisy_patch_sm.h ****       public:
  55:../../libDaisy//src/daisy_patch_sm.h ****         /** Helper for mapping pins, and accessing them using the `GetPin` function */
  56:../../libDaisy//src/daisy_patch_sm.h ****         enum class PinBank
  57:../../libDaisy//src/daisy_patch_sm.h ****         {
  58:../../libDaisy//src/daisy_patch_sm.h ****             A,
  59:../../libDaisy//src/daisy_patch_sm.h ****             B,
  60:../../libDaisy//src/daisy_patch_sm.h ****             C,
  61:../../libDaisy//src/daisy_patch_sm.h ****             D
  62:../../libDaisy//src/daisy_patch_sm.h ****         };
  63:../../libDaisy//src/daisy_patch_sm.h **** 
  64:../../libDaisy//src/daisy_patch_sm.h ****         DaisyPatchSM() {}
  65:../../libDaisy//src/daisy_patch_sm.h ****         ~DaisyPatchSM() {}
  80              		.loc 3 65 9 is_stmt 1 view -0
  81              		.cfi_startproc
  82              		@ args = 0, pretend = 0, frame = 0
  83              		@ frame_needed = 0, uses_anonymous_args = 0
  84              		@ link register save eliminated.
  85              	.LBB216:
  86              	.LBI216:
  87              		.file 4 "../../libDaisy//src/hid/gatein.h"
   1:../../libDaisy//src/hid/gatein.h **** #pragma once
   2:../../libDaisy//src/hid/gatein.h **** #ifndef DSY_GATEIN_H
   3:../../libDaisy//src/hid/gatein.h **** #define DSY_GATEIN_H
   4:../../libDaisy//src/hid/gatein.h **** #include "per/gpio.h"
   5:../../libDaisy//src/hid/gatein.h **** 
   6:../../libDaisy//src/hid/gatein.h **** namespace daisy
   7:../../libDaisy//src/hid/gatein.h **** {
   8:../../libDaisy//src/hid/gatein.h **** /**
   9:../../libDaisy//src/hid/gatein.h ****    @brief Generic Class for handling gate inputs through GPIO.
  10:../../libDaisy//src/hid/gatein.h ****    @author Stephen Hensley
  11:../../libDaisy//src/hid/gatein.h ****    @date    March 2020
  12:../../libDaisy//src/hid/gatein.h ****    @ingroup controls
  13:../../libDaisy//src/hid/gatein.h **** */
  14:../../libDaisy//src/hid/gatein.h **** class GateIn
ARM GAS  C:\Users\theri\AppData\Local\Temp\cc3rAykC.s 			page 5


  15:../../libDaisy//src/hid/gatein.h **** {
  16:../../libDaisy//src/hid/gatein.h ****   public:
  17:../../libDaisy//src/hid/gatein.h ****     /** GateIn 
  18:../../libDaisy//src/hid/gatein.h ****     Constructor 
  19:../../libDaisy//src/hid/gatein.h ****     */
  20:../../libDaisy//src/hid/gatein.h ****     GateIn() {}
  21:../../libDaisy//src/hid/gatein.h ****     /** GateIn~
  22:../../libDaisy//src/hid/gatein.h ****     Destructor 
  23:../../libDaisy//src/hid/gatein.h ****     */
  24:../../libDaisy//src/hid/gatein.h ****     ~GateIn() {}
  88              		.loc 4 24 5 view .LVU5
  89              		.loc 4 24 5 is_stmt 0 view .LVU6
  90              	.LBE216:
  91              	.LBB217:
  92              	.LBI217:
  93              		.loc 4 24 5 is_stmt 1 view .LVU7
  94              		.loc 4 24 5 is_stmt 0 view .LVU8
  95              	.LBE217:
  96              	.LBB218:
  97              	.LBI218:
  98              		.file 5 "../../libDaisy//src/dev/codec_pcm3060.h"
   1:../../libDaisy//src/dev/codec_pcm3060.h **** #pragma once
   2:../../libDaisy//src/dev/codec_pcm3060.h **** #ifndef DSY_CODEC_PCM3060_H
   3:../../libDaisy//src/dev/codec_pcm3060.h **** #define DSY_CODEC_PCM3060_H
   4:../../libDaisy//src/dev/codec_pcm3060.h **** #include "per/i2c.h"
   5:../../libDaisy//src/dev/codec_pcm3060.h **** namespace daisy
   6:../../libDaisy//src/dev/codec_pcm3060.h **** {
   7:../../libDaisy//src/dev/codec_pcm3060.h **** /**
   8:../../libDaisy//src/dev/codec_pcm3060.h ****  * @brief Driver for the TI PCM3060 Audio Codec.
   9:../../libDaisy//src/dev/codec_pcm3060.h ****  * @addtogroup codec
  10:../../libDaisy//src/dev/codec_pcm3060.h ****  * 
  11:../../libDaisy//src/dev/codec_pcm3060.h ****  * For now this is a limited interface that uses I2C to communicate with the PCM3060
  12:../../libDaisy//src/dev/codec_pcm3060.h ****  * The device can also be accessed with SPI, which is not yet supported.
  13:../../libDaisy//src/dev/codec_pcm3060.h ****  * 
  14:../../libDaisy//src/dev/codec_pcm3060.h ****  * For now all registers are set to their defaults, and the Init function will 
  15:../../libDaisy//src/dev/codec_pcm3060.h ****  * perform a MRST and SRST before setting the format to 24bit LJ, and disabling 
  16:../../libDaisy//src/dev/codec_pcm3060.h ****  * power save for both the ADC and DAC.
  17:../../libDaisy//src/dev/codec_pcm3060.h ****  *
  18:../../libDaisy//src/dev/codec_pcm3060.h ****  */
  19:../../libDaisy//src/dev/codec_pcm3060.h **** class Pcm3060
  20:../../libDaisy//src/dev/codec_pcm3060.h **** {
  21:../../libDaisy//src/dev/codec_pcm3060.h ****   public:
  22:../../libDaisy//src/dev/codec_pcm3060.h ****     enum class Result
  23:../../libDaisy//src/dev/codec_pcm3060.h ****     {
  24:../../libDaisy//src/dev/codec_pcm3060.h ****         OK,
  25:../../libDaisy//src/dev/codec_pcm3060.h ****         ERR,
  26:../../libDaisy//src/dev/codec_pcm3060.h ****     };
  27:../../libDaisy//src/dev/codec_pcm3060.h **** 
  28:../../libDaisy//src/dev/codec_pcm3060.h ****     Pcm3060() {}
  29:../../libDaisy//src/dev/codec_pcm3060.h ****     ~Pcm3060() {}
  99              		.loc 5 29 5 is_stmt 1 view .LVU9
 100              		.loc 5 29 5 is_stmt 0 view .LVU10
 101              	.LBE218:
 102              	.LBB219:
 103              	.LBI219:
 104              		.file 6 "../../libDaisy//src/hid/usb.h"
   1:../../libDaisy//src/hid/usb.h **** #pragma once
ARM GAS  C:\Users\theri\AppData\Local\Temp\cc3rAykC.s 			page 6


   2:../../libDaisy//src/hid/usb.h **** #ifndef DSY_HID_USB_H
   3:../../libDaisy//src/hid/usb.h **** #define DSY_HID_USB_H
   4:../../libDaisy//src/hid/usb.h **** #include <stdint.h>
   5:../../libDaisy//src/hid/usb.h **** #include <stdlib.h>
   6:../../libDaisy//src/hid/usb.h **** 
   7:../../libDaisy//src/hid/usb.h **** namespace daisy
   8:../../libDaisy//src/hid/usb.h **** /** @addtogroup human_interface
   9:../../libDaisy//src/hid/usb.h ****     @{
  10:../../libDaisy//src/hid/usb.h **** */
  11:../../libDaisy//src/hid/usb.h **** 
  12:../../libDaisy//src/hid/usb.h **** {
  13:../../libDaisy//src/hid/usb.h **** /** 
  14:../../libDaisy//src/hid/usb.h ****     @brief Interface for initializing and using the USB Peripherals on the daisy
  15:../../libDaisy//src/hid/usb.h ****     @author Stephen Hensley
  16:../../libDaisy//src/hid/usb.h ****     @date December 2019
  17:../../libDaisy//src/hid/usb.h **** */
  18:../../libDaisy//src/hid/usb.h **** class UsbHandle
  19:../../libDaisy//src/hid/usb.h **** {
  20:../../libDaisy//src/hid/usb.h ****   public:
  21:../../libDaisy//src/hid/usb.h ****     /** Return values for USBHandle Functions */
  22:../../libDaisy//src/hid/usb.h ****     enum class Result
  23:../../libDaisy//src/hid/usb.h ****     {
  24:../../libDaisy//src/hid/usb.h ****         OK,
  25:../../libDaisy//src/hid/usb.h ****         ERR,
  26:../../libDaisy//src/hid/usb.h ****     };
  27:../../libDaisy//src/hid/usb.h **** 
  28:../../libDaisy//src/hid/usb.h ****     /** Specified which of the two USB Peripherals to initialize. */
  29:../../libDaisy//src/hid/usb.h ****     enum UsbPeriph
  30:../../libDaisy//src/hid/usb.h ****     {
  31:../../libDaisy//src/hid/usb.h ****         FS_INTERNAL, /**< Internal pin */
  32:../../libDaisy//src/hid/usb.h ****         FS_EXTERNAL, /**< FS External D+ pin is Pin 38 (GPIO32). FS External D- pin is Pin 37 (GPIO
  33:../../libDaisy//src/hid/usb.h ****         FS_BOTH,     /**< Both */
  34:../../libDaisy//src/hid/usb.h ****     };
  35:../../libDaisy//src/hid/usb.h **** 
  36:../../libDaisy//src/hid/usb.h **** 
  37:../../libDaisy//src/hid/usb.h ****     /** Function called upon reception of a buffer */
  38:../../libDaisy//src/hid/usb.h ****     typedef void (*ReceiveCallback)(uint8_t* buff, uint32_t* len);
  39:../../libDaisy//src/hid/usb.h **** 
  40:../../libDaisy//src/hid/usb.h ****     UsbHandle() {}
  41:../../libDaisy//src/hid/usb.h **** 
  42:../../libDaisy//src/hid/usb.h ****     ~UsbHandle() {}
 105              		.loc 6 42 5 is_stmt 1 view .LVU11
 106              		.loc 6 42 5 is_stmt 0 view .LVU12
 107              	.LBE219:
 108              	.LBB220:
 109              	.LBI220:
 110              		.file 7 "../../libDaisy//src/per/adc.h"
   1:../../libDaisy//src/per/adc.h **** #pragma once
   2:../../libDaisy//src/per/adc.h **** #ifndef DSY_ADC_H
   3:../../libDaisy//src/per/adc.h **** #define DSY_ADC_H /**< Macro */
   4:../../libDaisy//src/per/adc.h **** #include <stdint.h>
   5:../../libDaisy//src/per/adc.h **** #include <stdlib.h>
   6:../../libDaisy//src/per/adc.h **** #include "daisy_core.h"
   7:../../libDaisy//src/per/adc.h **** #include "per/gpio.h"
   8:../../libDaisy//src/per/adc.h **** 
   9:../../libDaisy//src/per/adc.h **** #define DSY_ADC_MAX_CHANNELS 16 /**< Maximum number of ADC channels */
  10:../../libDaisy//src/per/adc.h **** 
ARM GAS  C:\Users\theri\AppData\Local\Temp\cc3rAykC.s 			page 7


  11:../../libDaisy//src/per/adc.h **** namespace daisy
  12:../../libDaisy//src/per/adc.h **** {
  13:../../libDaisy//src/per/adc.h **** /** @addtogroup per_analog
  14:../../libDaisy//src/per/adc.h ****     @{
  15:../../libDaisy//src/per/adc.h **** */
  16:../../libDaisy//src/per/adc.h **** 
  17:../../libDaisy//src/per/adc.h **** /* While there may not be many configuration options here,
  18:../../libDaisy//src/per/adc.h **** using a struct like this allows us to add more configuration
  19:../../libDaisy//src/per/adc.h **** later without breaking existing functionality.
  20:../../libDaisy//src/per/adc.h **** */
  21:../../libDaisy//src/per/adc.h **** 
  22:../../libDaisy//src/per/adc.h **** /** @brief   Configuration Structure for an ADC Channel 
  23:../../libDaisy//src/per/adc.h ****  *  @details This can be used to configure a a single input, 
  24:../../libDaisy//src/per/adc.h ****  *           or a multiplexed input, allowing up to 8 inputs on 
  25:../../libDaisy//src/per/adc.h ****  *           one channel.
  26:../../libDaisy//src/per/adc.h ****  *  @note    Sharing data lines to multiple muxes _is_ possible, but
  27:../../libDaisy//src/per/adc.h ****  *           each channel sharing data lines must be set to the maximum
  28:../../libDaisy//src/per/adc.h ****  *           number of channels, even if some multiplexers have fewer
  29:../../libDaisy//src/per/adc.h ****  *           inputs connected.
  30:../../libDaisy//src/per/adc.h **** */
  31:../../libDaisy//src/per/adc.h **** struct AdcChannelConfig
  32:../../libDaisy//src/per/adc.h **** {
  33:../../libDaisy//src/per/adc.h ****     /** Which pin to use for multiplexing */
  34:../../libDaisy//src/per/adc.h ****     enum MuxPin
  35:../../libDaisy//src/per/adc.h ****     {
  36:../../libDaisy//src/per/adc.h ****         MUX_SEL_0,    /**< & */
  37:../../libDaisy//src/per/adc.h ****         MUX_SEL_1,    /**< & */
  38:../../libDaisy//src/per/adc.h ****         MUX_SEL_2,    /**< & */
  39:../../libDaisy//src/per/adc.h ****         MUX_SEL_LAST, /**< & */
  40:../../libDaisy//src/per/adc.h ****     };
  41:../../libDaisy//src/per/adc.h **** 
  42:../../libDaisy//src/per/adc.h ****     /** Initializes a single ADC pin as an ADC. 
  43:../../libDaisy//src/per/adc.h ****     \param pin Pin to init.
  44:../../libDaisy//src/per/adc.h ****      */
  45:../../libDaisy//src/per/adc.h ****     void InitSingle(dsy_gpio_pin pin);
  46:../../libDaisy//src/per/adc.h **** 
  47:../../libDaisy//src/per/adc.h ****     /** 
  48:../../libDaisy//src/per/adc.h ****     Initializes a single ADC pin as a Multiplexed ADC.
  49:../../libDaisy//src/per/adc.h ****     Requires a CD405X Multiplexer connected to the pin.
  50:../../libDaisy//src/per/adc.h ****     You only need to supply the mux pins that are required,
  51:../../libDaisy//src/per/adc.h ****     e.g. a 4052 mux would only require mux_0 and mux_1.
  52:../../libDaisy//src/per/adc.h ****     Internal Callbacks handle the pin addressing.
  53:../../libDaisy//src/per/adc.h ****     \param mux_channels must be 1-8
  54:../../libDaisy//src/per/adc.h ****     \param mux_0 First mux pin
  55:../../libDaisy//src/per/adc.h ****     \param mux_1 Second mux pin
  56:../../libDaisy//src/per/adc.h ****     \param mux_2 Third mux pin
  57:../../libDaisy//src/per/adc.h ****     \param adc_pin &
  58:../../libDaisy//src/per/adc.h ****     */
  59:../../libDaisy//src/per/adc.h ****     void InitMux(dsy_gpio_pin adc_pin,
  60:../../libDaisy//src/per/adc.h ****                  size_t       mux_channels,
  61:../../libDaisy//src/per/adc.h ****                  dsy_gpio_pin mux_0,
  62:../../libDaisy//src/per/adc.h ****                  dsy_gpio_pin mux_1 = {DSY_GPIOX, 0},
  63:../../libDaisy//src/per/adc.h ****                  dsy_gpio_pin mux_2 = {DSY_GPIOX, 0});
  64:../../libDaisy//src/per/adc.h **** 
  65:../../libDaisy//src/per/adc.h ****     dsy_gpio pin_;                   /**< & */
  66:../../libDaisy//src/per/adc.h ****     dsy_gpio mux_pin_[MUX_SEL_LAST]; /**< & */
  67:../../libDaisy//src/per/adc.h ****     uint8_t  mux_channels_;          /**< & */
ARM GAS  C:\Users\theri\AppData\Local\Temp\cc3rAykC.s 			page 8


  68:../../libDaisy//src/per/adc.h **** };
  69:../../libDaisy//src/per/adc.h **** 
  70:../../libDaisy//src/per/adc.h **** /**
  71:../../libDaisy//src/per/adc.h ****    @brief Handler for analog to digital conversion
  72:../../libDaisy//src/per/adc.h **** */
  73:../../libDaisy//src/per/adc.h **** class AdcHandle
  74:../../libDaisy//src/per/adc.h **** {
  75:../../libDaisy//src/per/adc.h ****   public:
  76:../../libDaisy//src/per/adc.h ****     /** Supported oversampling amounts */
  77:../../libDaisy//src/per/adc.h ****     enum OverSampling
  78:../../libDaisy//src/per/adc.h ****     {
  79:../../libDaisy//src/per/adc.h ****         OVS_NONE, /**< & */
  80:../../libDaisy//src/per/adc.h ****         OVS_4,    /**< & */
  81:../../libDaisy//src/per/adc.h ****         OVS_8,    /**< & */
  82:../../libDaisy//src/per/adc.h ****         OVS_16,   /**< & */
  83:../../libDaisy//src/per/adc.h ****         OVS_32,   /**< & */
  84:../../libDaisy//src/per/adc.h ****         OVS_64,   /**< & */
  85:../../libDaisy//src/per/adc.h ****         OVS_128,  /**< & */
  86:../../libDaisy//src/per/adc.h ****         OVS_256,  /**< & */
  87:../../libDaisy//src/per/adc.h ****         OVS_512,  /**< & */
  88:../../libDaisy//src/per/adc.h ****         OVS_1024, /**< & */
  89:../../libDaisy//src/per/adc.h ****         OVS_LAST, /**< & */
  90:../../libDaisy//src/per/adc.h ****     };
  91:../../libDaisy//src/per/adc.h **** 
  92:../../libDaisy//src/per/adc.h ****     AdcHandle() {}
  93:../../libDaisy//src/per/adc.h ****     ~AdcHandle() {}
 111              		.loc 7 93 5 is_stmt 1 view .LVU13
 112              		.loc 7 93 5 is_stmt 0 view .LVU14
 113              	.LBE220:
 114              	.LBB221:
 115              	.LBI221:
 116              		.file 8 "../../libDaisy//src/hid/audio.h"
   1:../../libDaisy//src/hid/audio.h **** #ifndef DSY_AUDIO_H
   2:../../libDaisy//src/hid/audio.h **** #define DSY_AUDIO_H /**< & */
   3:../../libDaisy//src/hid/audio.h **** 
   4:../../libDaisy//src/hid/audio.h **** #include "per/sai.h"
   5:../../libDaisy//src/hid/audio.h **** 
   6:../../libDaisy//src/hid/audio.h **** namespace daisy
   7:../../libDaisy//src/hid/audio.h **** {
   8:../../libDaisy//src/hid/audio.h **** /** @brief Audio Engine Handle
   9:../../libDaisy//src/hid/audio.h ****  *  @ingroup audio 
  10:../../libDaisy//src/hid/audio.h ****  *  @details This class allows for higher level access to an audio engine.
  11:../../libDaisy//src/hid/audio.h ****  *           If you're using a SOM like the DaisySeed or DaisyPatchSM (or any 
  12:../../libDaisy//src/hid/audio.h ****  *            board that includes one of those objects) then the intialization
  13:../../libDaisy//src/hid/audio.h ****  *            is already taken  care of.
  14:../../libDaisy//src/hid/audio.h ****  *           If you're setting up your own custom hardware, or need to make changes
  15:../../libDaisy//src/hid/audio.h ****  *           you will have to take the following steps:
  16:../../libDaisy//src/hid/audio.h ****  *             1. Create and Initialize an SaiHandle or two depending on your requirements
  17:../../libDaisy//src/hid/audio.h ****  *             2. Initialize the Audio Handle with the desired settings and the Initialized SaiHand
  18:../../libDaisy//src/hid/audio.h ****  *             3. If the connected codec requires special configuration or initialization, do so
  19:../../libDaisy//src/hid/audio.h ****  *             4. Write a callback method using either the AudioCallback or the InterleavingAudioCa
  20:../../libDaisy//src/hid/audio.h ****  *             5. Start the Audio using one of the StartAudio function
  21:../../libDaisy//src/hid/audio.h ****  */
  22:../../libDaisy//src/hid/audio.h **** class AudioHandle
  23:../../libDaisy//src/hid/audio.h **** {
  24:../../libDaisy//src/hid/audio.h ****   public:
  25:../../libDaisy//src/hid/audio.h ****     /** Manually configurable details about the Audio Engine */
ARM GAS  C:\Users\theri\AppData\Local\Temp\cc3rAykC.s 			page 9


  26:../../libDaisy//src/hid/audio.h ****     /** TODO: Figure out how to get samplerate in here. */
  27:../../libDaisy//src/hid/audio.h ****     struct Config
  28:../../libDaisy//src/hid/audio.h ****     {
  29:../../libDaisy//src/hid/audio.h ****         /** number of samples to process per callback */
  30:../../libDaisy//src/hid/audio.h ****         size_t blocksize;
  31:../../libDaisy//src/hid/audio.h **** 
  32:../../libDaisy//src/hid/audio.h ****         /**< Sample rate of audio */
  33:../../libDaisy//src/hid/audio.h ****         SaiHandle::Config::SampleRate samplerate;
  34:../../libDaisy//src/hid/audio.h **** 
  35:../../libDaisy//src/hid/audio.h ****         /** factor for adjustment before and after callback for hardware that may have extra headro
  36:../../libDaisy//src/hid/audio.h ****         float postgain;
  37:../../libDaisy//src/hid/audio.h **** 
  38:../../libDaisy//src/hid/audio.h ****         /** factor for additional one-sided compensation to audio path for hardware that may
  39:../../libDaisy//src/hid/audio.h ****          *  have unequal input/output ranges
  40:../../libDaisy//src/hid/audio.h ****          */
  41:../../libDaisy//src/hid/audio.h ****         float output_compensation;
  42:../../libDaisy//src/hid/audio.h **** 
  43:../../libDaisy//src/hid/audio.h ****         /** Sets default values for config struct */
  44:../../libDaisy//src/hid/audio.h ****         Config()
  45:../../libDaisy//src/hid/audio.h ****         : blocksize(48),
  46:../../libDaisy//src/hid/audio.h ****           samplerate(SaiHandle::Config::SampleRate::SAI_48KHZ),
  47:../../libDaisy//src/hid/audio.h ****           postgain(1.f),
  48:../../libDaisy//src/hid/audio.h ****           output_compensation(1.f)
  49:../../libDaisy//src/hid/audio.h ****         {
  50:../../libDaisy//src/hid/audio.h ****         }
  51:../../libDaisy//src/hid/audio.h ****     };
  52:../../libDaisy//src/hid/audio.h **** 
  53:../../libDaisy//src/hid/audio.h ****     enum class Result
  54:../../libDaisy//src/hid/audio.h ****     {
  55:../../libDaisy//src/hid/audio.h ****         OK,
  56:../../libDaisy//src/hid/audio.h ****         ERR,
  57:../../libDaisy//src/hid/audio.h ****     };
  58:../../libDaisy//src/hid/audio.h **** 
  59:../../libDaisy//src/hid/audio.h ****     /** Non-Interleaving input buffer
  60:../../libDaisy//src/hid/audio.h ****      * Buffer arranged by float[chn][sample] 
  61:../../libDaisy//src/hid/audio.h ****      * const so that the user can't modify the input
  62:../../libDaisy//src/hid/audio.h ****      */
  63:../../libDaisy//src/hid/audio.h ****     typedef const float* const* InputBuffer;
  64:../../libDaisy//src/hid/audio.h **** 
  65:../../libDaisy//src/hid/audio.h ****     /** Non-Interleaving output buffer
  66:../../libDaisy//src/hid/audio.h ****      * Arranged by float[chn][sample] 
  67:../../libDaisy//src/hid/audio.h ****      */
  68:../../libDaisy//src/hid/audio.h ****     typedef float** OutputBuffer;
  69:../../libDaisy//src/hid/audio.h **** 
  70:../../libDaisy//src/hid/audio.h ****     /** Type for a Non-Interleaving audio callback 
  71:../../libDaisy//src/hid/audio.h ****      * Non-Interleaving audio callbacks in daisy will be of this type
  72:../../libDaisy//src/hid/audio.h ****      */
  73:../../libDaisy//src/hid/audio.h ****     typedef void (*AudioCallback)(InputBuffer  in,
  74:../../libDaisy//src/hid/audio.h ****                                   OutputBuffer out,
  75:../../libDaisy//src/hid/audio.h ****                                   size_t       size);
  76:../../libDaisy//src/hid/audio.h **** 
  77:../../libDaisy//src/hid/audio.h ****     /** Interleaving Input buffer
  78:../../libDaisy//src/hid/audio.h ****      ** audio is prepared as { L0, R0, L1, R1, . . . LN, RN }]
  79:../../libDaisy//src/hid/audio.h ****      ** this is const, as the user shouldn't modify it
  80:../../libDaisy//src/hid/audio.h ****     */
  81:../../libDaisy//src/hid/audio.h ****     typedef const float* InterleavingInputBuffer;
  82:../../libDaisy//src/hid/audio.h **** 
ARM GAS  C:\Users\theri\AppData\Local\Temp\cc3rAykC.s 			page 10


  83:../../libDaisy//src/hid/audio.h ****     /** Interleaving Output buffer 
  84:../../libDaisy//src/hid/audio.h ****      ** audio is prepared as { L0, R0, L1, R1, . . . LN, RN }
  85:../../libDaisy//src/hid/audio.h ****     */
  86:../../libDaisy//src/hid/audio.h ****     typedef float* InterleavingOutputBuffer;
  87:../../libDaisy//src/hid/audio.h **** 
  88:../../libDaisy//src/hid/audio.h ****     /** Interleaving Audio Callback 
  89:../../libDaisy//src/hid/audio.h ****      * Interleaving audio callbacks in daisy must be of this type
  90:../../libDaisy//src/hid/audio.h ****      */
  91:../../libDaisy//src/hid/audio.h ****     typedef void (*InterleavingAudioCallback)(InterleavingInputBuffer  in,
  92:../../libDaisy//src/hid/audio.h ****                                               InterleavingOutputBuffer out,
  93:../../libDaisy//src/hid/audio.h ****                                               size_t                   size);
  94:../../libDaisy//src/hid/audio.h **** 
  95:../../libDaisy//src/hid/audio.h ****     AudioHandle() : pimpl_(nullptr) {}
  96:../../libDaisy//src/hid/audio.h ****     ~AudioHandle() {}
 117              		.loc 8 96 5 is_stmt 1 view .LVU15
 118              		.loc 8 96 5 is_stmt 0 view .LVU16
 119              	.LBE221:
 120              	.LBB222:
 121              	.LBI222:
 122              		.file 9 "../../libDaisy//src/sys/system.h"
   1:../../libDaisy//src/sys/system.h **** #ifndef DSY_SYSTEM_H
   2:../../libDaisy//src/sys/system.h **** #define DSY_SYSTEM_H
   3:../../libDaisy//src/sys/system.h **** 
   4:../../libDaisy//src/sys/system.h **** #ifndef UNIT_TEST // for unit tests, a dummy implementation is provided below
   5:../../libDaisy//src/sys/system.h **** 
   6:../../libDaisy//src/sys/system.h **** #include <cstdint>
   7:../../libDaisy//src/sys/system.h **** #include "per/tim.h"
   8:../../libDaisy//src/sys/system.h **** 
   9:../../libDaisy//src/sys/system.h **** namespace daisy
  10:../../libDaisy//src/sys/system.h **** {
  11:../../libDaisy//src/sys/system.h **** /** A handle for interacting with the Core System. 
  12:../../libDaisy//src/sys/system.h ****  ** This includes the Clock tree, MPU, global DMA initialization,
  13:../../libDaisy//src/sys/system.h ****  ** cache handling, and any other necessary global initiailzation
  14:../../libDaisy//src/sys/system.h ****  **
  15:../../libDaisy//src/sys/system.h ****  ** @author shensley
  16:../../libDaisy//src/sys/system.h ****  ** @ingroup system
  17:../../libDaisy//src/sys/system.h ****  */
  18:../../libDaisy//src/sys/system.h **** class System
  19:../../libDaisy//src/sys/system.h **** {
  20:../../libDaisy//src/sys/system.h ****   public:
  21:../../libDaisy//src/sys/system.h ****     /** Contains settings for initializing the System */
  22:../../libDaisy//src/sys/system.h ****     struct Config
  23:../../libDaisy//src/sys/system.h ****     {
  24:../../libDaisy//src/sys/system.h ****         /** Specifies the system clock frequency that feeds APB/AHB clocks, etc. */
  25:../../libDaisy//src/sys/system.h ****         enum class SysClkFreq
  26:../../libDaisy//src/sys/system.h ****         {
  27:../../libDaisy//src/sys/system.h ****             FREQ_400MHZ,
  28:../../libDaisy//src/sys/system.h ****             FREQ_480MHZ,
  29:../../libDaisy//src/sys/system.h ****         };
  30:../../libDaisy//src/sys/system.h **** 
  31:../../libDaisy//src/sys/system.h ****         /** Method to call on the struct to set to defaults
  32:../../libDaisy//src/sys/system.h ****          ** CPU Freq set to 400MHz
  33:../../libDaisy//src/sys/system.h ****          ** Cache Enabled 
  34:../../libDaisy//src/sys/system.h ****          ** */
  35:../../libDaisy//src/sys/system.h ****         void Defaults()
  36:../../libDaisy//src/sys/system.h ****         {
  37:../../libDaisy//src/sys/system.h ****             cpu_freq    = SysClkFreq::FREQ_400MHZ;
ARM GAS  C:\Users\theri\AppData\Local\Temp\cc3rAykC.s 			page 11


  38:../../libDaisy//src/sys/system.h ****             use_dcache  = true;
  39:../../libDaisy//src/sys/system.h ****             use_icache  = true;
  40:../../libDaisy//src/sys/system.h ****             skip_clocks = false;
  41:../../libDaisy//src/sys/system.h ****         }
  42:../../libDaisy//src/sys/system.h **** 
  43:../../libDaisy//src/sys/system.h ****         /** Method to call on the struct to set to boost mode:
  44:../../libDaisy//src/sys/system.h ****          ** CPU Freq set to 480MHz
  45:../../libDaisy//src/sys/system.h ****          ** Cache Enabled 
  46:../../libDaisy//src/sys/system.h ****          ** */
  47:../../libDaisy//src/sys/system.h ****         void Boost()
  48:../../libDaisy//src/sys/system.h ****         {
  49:../../libDaisy//src/sys/system.h ****             cpu_freq    = SysClkFreq::FREQ_480MHZ;
  50:../../libDaisy//src/sys/system.h ****             use_dcache  = true;
  51:../../libDaisy//src/sys/system.h ****             use_icache  = true;
  52:../../libDaisy//src/sys/system.h ****             skip_clocks = false;
  53:../../libDaisy//src/sys/system.h ****         }
  54:../../libDaisy//src/sys/system.h **** 
  55:../../libDaisy//src/sys/system.h ****         SysClkFreq cpu_freq;
  56:../../libDaisy//src/sys/system.h ****         bool       use_dcache;
  57:../../libDaisy//src/sys/system.h ****         bool       use_icache;
  58:../../libDaisy//src/sys/system.h ****         bool       skip_clocks;
  59:../../libDaisy//src/sys/system.h ****     };
  60:../../libDaisy//src/sys/system.h **** 
  61:../../libDaisy//src/sys/system.h ****     /** Describes the different regions of memory available to the Daisy
  62:../../libDaisy//src/sys/system.h ****      * 
  63:../../libDaisy//src/sys/system.h ****      */
  64:../../libDaisy//src/sys/system.h ****     enum MemoryRegion
  65:../../libDaisy//src/sys/system.h ****     {
  66:../../libDaisy//src/sys/system.h ****         INTERNAL_FLASH = 0,
  67:../../libDaisy//src/sys/system.h ****         ITCMRAM,
  68:../../libDaisy//src/sys/system.h ****         DTCMRAM,
  69:../../libDaisy//src/sys/system.h ****         SRAM_D1,
  70:../../libDaisy//src/sys/system.h ****         SRAM_D2,
  71:../../libDaisy//src/sys/system.h ****         SRAM_D3,
  72:../../libDaisy//src/sys/system.h ****         SDRAM,
  73:../../libDaisy//src/sys/system.h ****         QSPI,
  74:../../libDaisy//src/sys/system.h ****         INVALID_ADDRESS,
  75:../../libDaisy//src/sys/system.h ****     };
  76:../../libDaisy//src/sys/system.h **** 
  77:../../libDaisy//src/sys/system.h ****     System() {}
  78:../../libDaisy//src/sys/system.h ****     ~System() {}
 123              		.loc 9 78 5 is_stmt 1 view .LVU17
 124              		.loc 9 78 5 is_stmt 0 view .LVU18
 125              	.LBE222:
 126              		.loc 3 65 26 view .LVU19
 127 0000 7047     		bx	lr
 128              		.cfi_endproc
 129              	.LFE2528:
 131              		.weak	_ZN5daisy8patch_sm12DaisyPatchSMD1Ev
 132              		.thumb_set _ZN5daisy8patch_sm12DaisyPatchSMD1Ev,_ZN5daisy8patch_sm12DaisyPatchSMD2Ev
 133 0002 00BF     		.section	.text._ZN7daisysp3SvfD2Ev,"axG",%progbits,_ZN7daisysp3SvfD5Ev,comdat
 134              		.align	1
 135              		.p2align 2,,3
 136              		.weak	_ZN7daisysp3SvfD2Ev
 137              		.syntax unified
 138              		.thumb
 139              		.thumb_func
ARM GAS  C:\Users\theri\AppData\Local\Temp\cc3rAykC.s 			page 12


 140              		.fpu fpv5-d16
 142              	_ZN7daisysp3SvfD2Ev:
 143              	.LVL3:
 144              	.LFB4239:
 145              		.file 10 "../../DaisySP//Source/Filters/svf.h"
   1:../../DaisySP//Source/Filters/svf.h **** #pragma once
   2:../../DaisySP//Source/Filters/svf.h **** #ifndef DSY_SVF_H
   3:../../DaisySP//Source/Filters/svf.h **** #define DSY_SVF_H
   4:../../DaisySP//Source/Filters/svf.h **** 
   5:../../DaisySP//Source/Filters/svf.h **** namespace daisysp
   6:../../DaisySP//Source/Filters/svf.h **** {
   7:../../DaisySP//Source/Filters/svf.h **** /**      Double Sampled, Stable State Variable Filter
   8:../../DaisySP//Source/Filters/svf.h **** 
   9:../../DaisySP//Source/Filters/svf.h **** Credit to Andrew Simper from musicdsp.org
  10:../../DaisySP//Source/Filters/svf.h **** 
  11:../../DaisySP//Source/Filters/svf.h **** This is his "State Variable Filter (Double Sampled, Stable)"
  12:../../DaisySP//Source/Filters/svf.h **** 
  13:../../DaisySP//Source/Filters/svf.h **** Additional thanks to Laurent de Soras for stability limit, and 
  14:../../DaisySP//Source/Filters/svf.h **** Stefan Diedrichsen for the correct notch output
  15:../../DaisySP//Source/Filters/svf.h **** 
  16:../../DaisySP//Source/Filters/svf.h **** Ported by: Stephen Hensley
  17:../../DaisySP//Source/Filters/svf.h **** */
  18:../../DaisySP//Source/Filters/svf.h **** class Svf
  19:../../DaisySP//Source/Filters/svf.h **** {
  20:../../DaisySP//Source/Filters/svf.h ****   public:
  21:../../DaisySP//Source/Filters/svf.h ****     Svf() {}
  22:../../DaisySP//Source/Filters/svf.h ****     ~Svf() {}
 146              		.loc 10 22 5 is_stmt 1 view -0
 147              		.cfi_startproc
 148              		@ args = 0, pretend = 0, frame = 0
 149              		@ frame_needed = 0, uses_anonymous_args = 0
 150              		@ link register save eliminated.
 151              		.loc 10 22 13 is_stmt 0 view .LVU21
 152 0000 7047     		bx	lr
 153              		.cfi_endproc
 154              	.LFE4239:
 156              		.weak	_ZN7daisysp3SvfD1Ev
 157              		.thumb_set _ZN7daisysp3SvfD1Ev,_ZN7daisysp3SvfD2Ev
 158              		.section	.text._Z13AudioCallbackPKPKfPPfj,"ax",%progbits
 159              		.align	1
 160              		.p2align 2,,3
 161              		.global	_Z13AudioCallbackPKPKfPPfj
 162              		.syntax unified
 163              		.thumb
 164              		.thumb_func
 165              		.fpu fpv5-d16
 167              	_Z13AudioCallbackPKPKfPPfj:
 168              	.LVL4:
 169              	.LFB4793:
 170              		.file 11 "DSF.cpp"
   1:DSF.cpp       **** #include "daisy_patch_sm.h"
   2:DSF.cpp       **** #include "daisysp.h"
   3:DSF.cpp       **** #include <math.h>
   4:DSF.cpp       **** 
   5:DSF.cpp       **** using namespace daisy;
   6:DSF.cpp       **** using namespace patch_sm;
   7:DSF.cpp       **** using namespace daisysp;
ARM GAS  C:\Users\theri\AppData\Local\Temp\cc3rAykC.s 			page 13


   8:DSF.cpp       **** 
   9:DSF.cpp       **** /**
  10:DSF.cpp       ****     CV_1 < Spread
  11:DSF.cpp       ****     CV_2 < Resonance
  12:DSF.cpp       ****     CV_3 < Cutoff
  13:DSF.cpp       ****     CV_4 < High Pass
  14:DSF.cpp       **** 
  15:DSF.cpp       ****     CV_5 < Frequency Mod 1
  16:DSF.cpp       ****     CV_6 < Frequency Mod 2
  17:DSF.cpp       ****     CV_7 < Resonance
  18:DSF.cpp       ****     CV_8 < Spread
  19:DSF.cpp       **** */
  20:DSF.cpp       **** 
  21:DSF.cpp       **** const float CUTOFF_MIN       = 20.0f;
  22:DSF.cpp       **** const float CUTOFF_MAX       = 20000.0f;
  23:DSF.cpp       **** const float CUTOFF_RANGE     = 20000.0f;
  24:DSF.cpp       **** const float RESONANCE_MAX    = 1.0f;
  25:DSF.cpp       **** const float BASE_1           = 4.0f;
  26:DSF.cpp       **** const float BASE_2           = 1.7f;
  27:DSF.cpp       **** const float VOLUME_NORMAL    = 0.5f;
  28:DSF.cpp       **** const int   FILTER_STATES    = 5;
  29:DSF.cpp       **** 
  30:DSF.cpp       **** DaisyPatchSM        patch;
  31:DSF.cpp       **** Switch              button;
  32:DSF.cpp       **** Led                 led;
  33:DSF.cpp       **** Svf                 svfL1, svfL2, svfR1, svfR2, highPassL, highPassR;
  34:DSF.cpp       **** 
  35:DSF.cpp       **** float   cutoff, fmKnob, fmCV1, fmCV2, cutoffSquared, 
  36:DSF.cpp       ****         resonance, rmKnob, rmCV, 
  37:DSF.cpp       ****         spread, spreadKnob, spreadCV,
  38:DSF.cpp       ****         imageL1, imageL2, imageR1, imageR2, exponent, 
  39:DSF.cpp       ****         hpCutoff, samplerate;
  40:DSF.cpp       **** int     buttonValue;
  41:DSF.cpp       **** bool    buttonState;
  42:DSF.cpp       **** 
  43:DSF.cpp       **** float RestrictRange(float input, float min, float max) {
  44:DSF.cpp       ****     if (input > max) {
  45:DSF.cpp       ****         return max;
  46:DSF.cpp       ****     } else if (input < min) {
  47:DSF.cpp       ****         return min;
  48:DSF.cpp       ****     } else {
  49:DSF.cpp       ****         return input;
  50:DSF.cpp       ****     }
  51:DSF.cpp       **** } // END RESTRICT RANGE METHOD
  52:DSF.cpp       **** 
  53:DSF.cpp       **** 
  54:DSF.cpp       **** // MAIN AUDIO PROCESSING METHOD
  55:DSF.cpp       **** void AudioCallback(AudioHandle::InputBuffer  in,
  56:DSF.cpp       ****                    AudioHandle::OutputBuffer out,
  57:DSF.cpp       ****                    size_t                    size) {
 171              		.loc 11 57 52 is_stmt 1 view -0
 172              		.cfi_startproc
 173              		@ args = 0, pretend = 0, frame = 8
 174              		@ frame_needed = 0, uses_anonymous_args = 0
  58:DSF.cpp       ****     
  59:DSF.cpp       ****     // UPDATE CV INPUTS
  60:DSF.cpp       ****     patch.ProcessAllControls();
ARM GAS  C:\Users\theri\AppData\Local\Temp\cc3rAykC.s 			page 14


 175              		.loc 11 60 5 view .LVU23
 176              	.LBB223:
 177              	.LBI223:
  66:../../libDaisy//src/daisy_patch_sm.h **** 
  67:../../libDaisy//src/daisy_patch_sm.h ****         /** Initializes the memories, and core peripherals for the Daisy Patch SM */
  68:../../libDaisy//src/daisy_patch_sm.h ****         void Init();
  69:../../libDaisy//src/daisy_patch_sm.h **** 
  70:../../libDaisy//src/daisy_patch_sm.h ****         /** Starts a non-interleaving audio callback */
  71:../../libDaisy//src/daisy_patch_sm.h ****         void StartAudio(AudioHandle::AudioCallback cb);
  72:../../libDaisy//src/daisy_patch_sm.h **** 
  73:../../libDaisy//src/daisy_patch_sm.h ****         /** Starts an interleaving audio callback */
  74:../../libDaisy//src/daisy_patch_sm.h ****         void StartAudio(AudioHandle::InterleavingAudioCallback cb);
  75:../../libDaisy//src/daisy_patch_sm.h **** 
  76:../../libDaisy//src/daisy_patch_sm.h ****         /** Changes the callback that is executing.
  77:../../libDaisy//src/daisy_patch_sm.h ****          *  This may cause clicks if done while audio is processing.
  78:../../libDaisy//src/daisy_patch_sm.h ****          */
  79:../../libDaisy//src/daisy_patch_sm.h ****         void ChangeAudioCallback(AudioHandle::AudioCallback cb);
  80:../../libDaisy//src/daisy_patch_sm.h **** 
  81:../../libDaisy//src/daisy_patch_sm.h ****         /** Changes the callback that is executing.
  82:../../libDaisy//src/daisy_patch_sm.h ****          *  This may cause clicks if done while audio is processing.
  83:../../libDaisy//src/daisy_patch_sm.h ****          */
  84:../../libDaisy//src/daisy_patch_sm.h ****         void ChangeAudioCallback(AudioHandle::InterleavingAudioCallback cb);
  85:../../libDaisy//src/daisy_patch_sm.h **** 
  86:../../libDaisy//src/daisy_patch_sm.h ****         /** Stops the transmission of audio. */
  87:../../libDaisy//src/daisy_patch_sm.h ****         void StopAudio();
  88:../../libDaisy//src/daisy_patch_sm.h **** 
  89:../../libDaisy//src/daisy_patch_sm.h ****         /** Sets the number of samples processed in an audio callback. 
  90:../../libDaisy//src/daisy_patch_sm.h ****          *  This will only take effect on the next invocation of `StartAudio`
  91:../../libDaisy//src/daisy_patch_sm.h ****          */
  92:../../libDaisy//src/daisy_patch_sm.h ****         void SetAudioBlockSize(size_t size);
  93:../../libDaisy//src/daisy_patch_sm.h **** 
  94:../../libDaisy//src/daisy_patch_sm.h ****         /** Sets the samplerate for the audio engine 
  95:../../libDaisy//src/daisy_patch_sm.h ****          *  This will set it to the closest valid samplerate. Options being:
  96:../../libDaisy//src/daisy_patch_sm.h ****          *  8kHz, 16kHz, 32kHz, 48kHz, and 96kHz
  97:../../libDaisy//src/daisy_patch_sm.h ****          */
  98:../../libDaisy//src/daisy_patch_sm.h ****         void SetAudioSampleRate(float sr);
  99:../../libDaisy//src/daisy_patch_sm.h **** 
 100:../../libDaisy//src/daisy_patch_sm.h ****         void SetAudioSampleRate(SaiHandle::Config::SampleRate sample_rate);
 101:../../libDaisy//src/daisy_patch_sm.h **** 
 102:../../libDaisy//src/daisy_patch_sm.h ****         /** Returns the number of samples processed in an audio callback */
 103:../../libDaisy//src/daisy_patch_sm.h ****         size_t AudioBlockSize();
 104:../../libDaisy//src/daisy_patch_sm.h **** 
 105:../../libDaisy//src/daisy_patch_sm.h ****         /** Returns the audio engine's samplerate in Hz */
 106:../../libDaisy//src/daisy_patch_sm.h ****         float AudioSampleRate();
 107:../../libDaisy//src/daisy_patch_sm.h **** 
 108:../../libDaisy//src/daisy_patch_sm.h ****         /** Returns the rate at which the audio callback will be called in Hz */
 109:../../libDaisy//src/daisy_patch_sm.h ****         float AudioCallbackRate();
 110:../../libDaisy//src/daisy_patch_sm.h **** 
 111:../../libDaisy//src/daisy_patch_sm.h ****         /** Starts the Control ADCs 
 112:../../libDaisy//src/daisy_patch_sm.h ****          * 
 113:../../libDaisy//src/daisy_patch_sm.h ****          *  This is started automatically when Init() is called.
 114:../../libDaisy//src/daisy_patch_sm.h ****          */
 115:../../libDaisy//src/daisy_patch_sm.h ****         void StartAdc();
 116:../../libDaisy//src/daisy_patch_sm.h **** 
 117:../../libDaisy//src/daisy_patch_sm.h ****         /** Stops the Control ADCs */
 118:../../libDaisy//src/daisy_patch_sm.h ****         void StopAdc();
 119:../../libDaisy//src/daisy_patch_sm.h **** 
ARM GAS  C:\Users\theri\AppData\Local\Temp\cc3rAykC.s 			page 15


 120:../../libDaisy//src/daisy_patch_sm.h ****         /** Reads and filters all of the analog control inputs */
 121:../../libDaisy//src/daisy_patch_sm.h ****         void ProcessAnalogControls();
 122:../../libDaisy//src/daisy_patch_sm.h **** 
 123:../../libDaisy//src/daisy_patch_sm.h ****         /** Reads and debounces any of the digital control inputs 
 124:../../libDaisy//src/daisy_patch_sm.h ****          *  This does nothing on this board at this time.
 125:../../libDaisy//src/daisy_patch_sm.h ****          */
 126:../../libDaisy//src/daisy_patch_sm.h ****         void ProcessDigitalControls();
 127:../../libDaisy//src/daisy_patch_sm.h **** 
 128:../../libDaisy//src/daisy_patch_sm.h ****         /** Does both of the above */
 129:../../libDaisy//src/daisy_patch_sm.h ****         void ProcessAllControls()
 178              		.loc 3 129 14 view .LVU24
 179              	.LBB224:
 130:../../libDaisy//src/daisy_patch_sm.h ****         {
 131:../../libDaisy//src/daisy_patch_sm.h ****             ProcessAnalogControls();
 180              		.loc 3 131 13 view .LVU25
 181              	.LBE224:
 182              	.LBE223:
  57:DSF.cpp       ****     
 183              		.loc 11 57 52 is_stmt 0 view .LVU26
 184 0000 2DE9F04F 		push	{r4, r5, r6, r7, r8, r9, r10, fp, lr}
 185              		.cfi_def_cfa_offset 36
 186              		.cfi_offset 4, -36
 187              		.cfi_offset 5, -32
 188              		.cfi_offset 6, -28
 189              		.cfi_offset 7, -24
 190              		.cfi_offset 8, -20
 191              		.cfi_offset 9, -16
 192              		.cfi_offset 10, -12
 193              		.cfi_offset 11, -8
 194              		.cfi_offset 14, -4
 195 0004 83B0     		sub	sp, sp, #12
 196              		.cfi_def_cfa_offset 48
  61:DSF.cpp       **** 
  62:DSF.cpp       ****     // Debounce button
  63:DSF.cpp       ****     button.Debounce();
 197              		.loc 11 63 20 view .LVU27
 198 0006 C64C     		ldr	r4, .L48
  57:DSF.cpp       ****     
 199              		.loc 11 57 52 view .LVU28
 200 0008 0646     		mov	r6, r0
 201              	.LBB227:
 202              	.LBB225:
 203              		.loc 3 131 34 view .LVU29
 204 000a C648     		ldr	r0, .L48+4
 205              	.LVL5:
 206              		.loc 3 131 34 view .LVU30
 207              	.LBE225:
 208              	.LBE227:
  57:DSF.cpp       ****     
 209              		.loc 11 57 52 view .LVU31
 210 000c 0F46     		mov	r7, r1
 211 000e 0092     		str	r2, [sp]
 212              	.LBB228:
 213              	.LBB226:
 214              		.loc 3 131 34 view .LVU32
 215 0010 FFF7FEFF 		bl	_ZN5daisy8patch_sm12DaisyPatchSM21ProcessAnalogControlsEv
 216              	.LVL6:
ARM GAS  C:\Users\theri\AppData\Local\Temp\cc3rAykC.s 			page 16


 132:../../libDaisy//src/daisy_patch_sm.h ****             ProcessDigitalControls();
 217              		.loc 3 132 13 is_stmt 1 view .LVU33
 218              		.loc 3 132 35 is_stmt 0 view .LVU34
 219 0014 C348     		ldr	r0, .L48+4
 220 0016 FFF7FEFF 		bl	_ZN5daisy8patch_sm12DaisyPatchSM22ProcessDigitalControlsEv
 221              	.LVL7:
 222              		.loc 3 132 35 view .LVU35
 223              	.LBE226:
 224              	.LBE228:
 225              		.loc 11 63 5 is_stmt 1 view .LVU36
 226              		.loc 11 63 20 is_stmt 0 view .LVU37
 227 001a 2046     		mov	r0, r4
 228 001c FFF7FEFF 		bl	_ZN5daisy6Switch8DebounceEv
 229              	.LVL8:
  64:DSF.cpp       **** 
  65:DSF.cpp       ****     // Process Button
  66:DSF.cpp       ****     // Need to get rising edge for a single input
  67:DSF.cpp       ****     if (button.RisingEdge()) {
 230              		.loc 11 67 5 is_stmt 1 view .LVU38
 231              	.LBB229:
 232              	.LBI229:
  43:../../libDaisy//src/hid/switch.h **** 
  44:../../libDaisy//src/hid/switch.h ****     /** 
  45:../../libDaisy//src/hid/switch.h ****     Initializes the switch object with a given port/pin combo.
  46:../../libDaisy//src/hid/switch.h ****     \param pin port/pin object to tell the switch which hardware pin to use.
  47:../../libDaisy//src/hid/switch.h ****     \param update_rate Does nothing. Backwards compatibility until next breaking update.
  48:../../libDaisy//src/hid/switch.h ****     \param t switch type -- Default: TYPE_MOMENTARY
  49:../../libDaisy//src/hid/switch.h ****     \param pol switch polarity -- Default: POLARITY_INVERTED
  50:../../libDaisy//src/hid/switch.h ****     \param pu switch pull up/down -- Default: PULL_UP
  51:../../libDaisy//src/hid/switch.h ****     */
  52:../../libDaisy//src/hid/switch.h ****     void
  53:../../libDaisy//src/hid/switch.h ****     Init(dsy_gpio_pin pin, float update_rate, Type t, Polarity pol, Pull pu);
  54:../../libDaisy//src/hid/switch.h **** 
  55:../../libDaisy//src/hid/switch.h ****     /**
  56:../../libDaisy//src/hid/switch.h ****        Simplified Init.
  57:../../libDaisy//src/hid/switch.h ****        \param pin port/pin object to tell the switch which hardware pin to use.
  58:../../libDaisy//src/hid/switch.h ****        \param update_rate Left for backwards compatibility until next breaking change.
  59:../../libDaisy//src/hid/switch.h ****     */
  60:../../libDaisy//src/hid/switch.h ****     void Init(dsy_gpio_pin pin, float update_rate = 0.f);
  61:../../libDaisy//src/hid/switch.h **** 
  62:../../libDaisy//src/hid/switch.h ****     /** 
  63:../../libDaisy//src/hid/switch.h ****     Called at update_rate to debounce and handle timing for the switch.
  64:../../libDaisy//src/hid/switch.h ****     In order for events not to be missed, its important that the Edge/Pressed checks
  65:../../libDaisy//src/hid/switch.h ****     be made at the same rate as the debounce function is being called.
  66:../../libDaisy//src/hid/switch.h ****     */
  67:../../libDaisy//src/hid/switch.h ****     void Debounce();
  68:../../libDaisy//src/hid/switch.h **** 
  69:../../libDaisy//src/hid/switch.h ****     /** \return true if a button was just pressed. */
  70:../../libDaisy//src/hid/switch.h ****     inline bool RisingEdge() const { return updated_ ? state_ == 0x7f : false; }
 233              		.loc 1 70 17 view .LVU39
 234              	.LBB230:
 235              		.loc 1 70 38 view .LVU40
 236              		.loc 1 70 54 is_stmt 0 view .LVU41
 237 0020 2379     		ldrb	r3, [r4, #4]	@ zero_extendqisi2
 238 0022 1BB1     		cbz	r3, .L9
 239              	.LVL9:
 240              		.loc 1 70 54 view .LVU42
ARM GAS  C:\Users\theri\AppData\Local\Temp\cc3rAykC.s 			page 17


 241              	.LBE230:
 242              	.LBE229:
 243              		.loc 11 67 5 view .LVU43
 244 0024 A37A     		ldrb	r3, [r4, #10]	@ zero_extendqisi2
 245 0026 7F2B     		cmp	r3, #127
 246 0028 00F02C82 		beq	.L42
 247              	.L9:
  68:DSF.cpp       ****         buttonValue++;
  69:DSF.cpp       ****     }
  70:DSF.cpp       **** 
  71:DSF.cpp       ****     buttonValue = buttonValue % FILTER_STATES;
 248              		.loc 11 71 31 view .LVU44
 249 002c BE4B     		ldr	r3, .L48+8
 250 002e 1A68     		ldr	r2, [r3]
 251 0030 0193     		str	r3, [sp, #4]
 252              	.L8:
 253              		.loc 11 71 5 is_stmt 1 view .LVU45
 254              		.loc 11 71 31 is_stmt 0 view .LVU46
 255 0032 BE49     		ldr	r1, .L48+12
  72:DSF.cpp       **** 
  73:DSF.cpp       ****     // GET ADC VALUES
  74:DSF.cpp       ****     fmKnob          = patch.GetAdcValue(CV_3);
 256              		.loc 11 74 40 view .LVU47
 257 0034 BB48     		ldr	r0, .L48+4
  71:DSF.cpp       **** 
 258              		.loc 11 71 31 view .LVU48
 259 0036 81FB0231 		smull	r3, r1, r1, r2
 260 003a D317     		asrs	r3, r2, #31
  75:DSF.cpp       ****     fmCV1           = patch.GetAdcValue(CV_5);
 261              		.loc 11 75 21 view .LVU49
 262 003c DFF830A3 		ldr	r10, .L48+80
  71:DSF.cpp       **** 
 263              		.loc 11 71 31 view .LVU50
 264 0040 C3EB6103 		rsb	r3, r3, r1, asr #1
  74:DSF.cpp       ****     fmCV1           = patch.GetAdcValue(CV_5);
 265              		.loc 11 74 40 view .LVU51
 266 0044 0221     		movs	r1, #2
  76:DSF.cpp       ****     fmCV2           = patch.GetAdcValue(CV_6);
 267              		.loc 11 76 21 view .LVU52
 268 0046 BA4C     		ldr	r4, .L48+16
  71:DSF.cpp       **** 
 269              		.loc 11 71 31 view .LVU53
 270 0048 03EB8303 		add	r3, r3, r3, lsl #2
  77:DSF.cpp       **** 
  78:DSF.cpp       ****     rmKnob          = patch.GetAdcValue(CV_2);
 271              		.loc 11 78 21 view .LVU54
 272 004c DFF824B3 		ldr	fp, .L48+84
  79:DSF.cpp       ****     rmCV            = patch.GetAdcValue(CV_7);
 273              		.loc 11 79 21 view .LVU55
 274 0050 DFF82493 		ldr	r9, .L48+88
  71:DSF.cpp       **** 
 275              		.loc 11 71 31 view .LVU56
 276 0054 D31A     		subs	r3, r2, r3
  71:DSF.cpp       **** 
 277              		.loc 11 71 17 view .LVU57
 278 0056 019A     		ldr	r2, [sp, #4]
  80:DSF.cpp       **** 
ARM GAS  C:\Users\theri\AppData\Local\Temp\cc3rAykC.s 			page 18


  81:DSF.cpp       ****     spreadKnob      = patch.GetAdcValue(CV_1);
 279              		.loc 11 81 21 view .LVU58
 280 0058 DFF82083 		ldr	r8, .L48+92
  71:DSF.cpp       **** 
 281              		.loc 11 71 17 view .LVU59
 282 005c 1360     		str	r3, [r2]
  74:DSF.cpp       ****     fmCV1           = patch.GetAdcValue(CV_5);
 283              		.loc 11 74 5 is_stmt 1 view .LVU60
  74:DSF.cpp       ****     fmCV1           = patch.GetAdcValue(CV_5);
 284              		.loc 11 74 40 is_stmt 0 view .LVU61
 285 005e FFF7FEFF 		bl	_ZN5daisy8patch_sm12DaisyPatchSM11GetAdcValueEi
 286              	.LVL10:
  75:DSF.cpp       ****     fmCV2           = patch.GetAdcValue(CV_6);
 287              		.loc 11 75 5 is_stmt 1 view .LVU62
  74:DSF.cpp       ****     fmCV1           = patch.GetAdcValue(CV_5);
 288              		.loc 11 74 21 is_stmt 0 view .LVU63
 289 0062 B44A     		ldr	r2, .L48+20
  75:DSF.cpp       ****     fmCV2           = patch.GetAdcValue(CV_6);
 290              		.loc 11 75 40 view .LVU64
 291 0064 0421     		movs	r1, #4
 292 0066 AF48     		ldr	r0, .L48+4
  74:DSF.cpp       ****     fmCV1           = patch.GetAdcValue(CV_5);
 293              		.loc 11 74 21 view .LVU65
 294 0068 82ED000A 		vstr.32	s0, [r2]
  75:DSF.cpp       ****     fmCV2           = patch.GetAdcValue(CV_6);
 295              		.loc 11 75 40 view .LVU66
 296 006c FFF7FEFF 		bl	_ZN5daisy8patch_sm12DaisyPatchSM11GetAdcValueEi
 297              	.LVL11:
  76:DSF.cpp       **** 
 298              		.loc 11 76 40 view .LVU67
 299 0070 0521     		movs	r1, #5
 300 0072 AC48     		ldr	r0, .L48+4
  75:DSF.cpp       ****     fmCV2           = patch.GetAdcValue(CV_6);
 301              		.loc 11 75 21 view .LVU68
 302 0074 8AED000A 		vstr.32	s0, [r10]
  76:DSF.cpp       **** 
 303              		.loc 11 76 5 is_stmt 1 view .LVU69
  76:DSF.cpp       **** 
 304              		.loc 11 76 40 is_stmt 0 view .LVU70
 305 0078 FFF7FEFF 		bl	_ZN5daisy8patch_sm12DaisyPatchSM11GetAdcValueEi
 306              	.LVL12:
  78:DSF.cpp       ****     rmCV            = patch.GetAdcValue(CV_7);
 307              		.loc 11 78 40 view .LVU71
 308 007c 0121     		movs	r1, #1
 309 007e A948     		ldr	r0, .L48+4
  76:DSF.cpp       **** 
 310              		.loc 11 76 21 view .LVU72
 311 0080 84ED000A 		vstr.32	s0, [r4]
  78:DSF.cpp       ****     rmCV            = patch.GetAdcValue(CV_7);
 312              		.loc 11 78 5 is_stmt 1 view .LVU73
  78:DSF.cpp       ****     rmCV            = patch.GetAdcValue(CV_7);
 313              		.loc 11 78 40 is_stmt 0 view .LVU74
 314 0084 FFF7FEFF 		bl	_ZN5daisy8patch_sm12DaisyPatchSM11GetAdcValueEi
 315              	.LVL13:
  79:DSF.cpp       **** 
 316              		.loc 11 79 40 view .LVU75
 317 0088 0621     		movs	r1, #6
ARM GAS  C:\Users\theri\AppData\Local\Temp\cc3rAykC.s 			page 19


 318 008a A648     		ldr	r0, .L48+4
  78:DSF.cpp       ****     rmCV            = patch.GetAdcValue(CV_7);
 319              		.loc 11 78 21 view .LVU76
 320 008c 8BED000A 		vstr.32	s0, [fp]
  79:DSF.cpp       **** 
 321              		.loc 11 79 5 is_stmt 1 view .LVU77
  79:DSF.cpp       **** 
 322              		.loc 11 79 40 is_stmt 0 view .LVU78
 323 0090 FFF7FEFF 		bl	_ZN5daisy8patch_sm12DaisyPatchSM11GetAdcValueEi
 324              	.LVL14:
 325              		.loc 11 81 40 view .LVU79
 326 0094 0021     		movs	r1, #0
 327 0096 A348     		ldr	r0, .L48+4
  82:DSF.cpp       ****     spreadCV        = patch.GetAdcValue(CV_8);
 328              		.loc 11 82 21 view .LVU80
 329 0098 A74D     		ldr	r5, .L48+24
  79:DSF.cpp       **** 
 330              		.loc 11 79 21 view .LVU81
 331 009a 89ED000A 		vstr.32	s0, [r9]
  81:DSF.cpp       ****     spreadCV        = patch.GetAdcValue(CV_8);
 332              		.loc 11 81 5 is_stmt 1 view .LVU82
  81:DSF.cpp       ****     spreadCV        = patch.GetAdcValue(CV_8);
 333              		.loc 11 81 40 is_stmt 0 view .LVU83
 334 009e FFF7FEFF 		bl	_ZN5daisy8patch_sm12DaisyPatchSM11GetAdcValueEi
 335              	.LVL15:
 336              		.loc 11 82 40 view .LVU84
 337 00a2 0721     		movs	r1, #7
 338 00a4 9F48     		ldr	r0, .L48+4
  81:DSF.cpp       ****     spreadCV        = patch.GetAdcValue(CV_8);
 339              		.loc 11 81 21 view .LVU85
 340 00a6 88ED000A 		vstr.32	s0, [r8]
 341              		.loc 11 82 5 is_stmt 1 view .LVU86
 342              		.loc 11 82 40 is_stmt 0 view .LVU87
 343 00aa FFF7FEFF 		bl	_ZN5daisy8patch_sm12DaisyPatchSM11GetAdcValueEi
 344              	.LVL16:
  83:DSF.cpp       **** 
  84:DSF.cpp       ****     hpCutoff        = patch.GetAdcValue(CV_4);
 345              		.loc 11 84 40 view .LVU88
 346 00ae 0321     		movs	r1, #3
 347 00b0 9C48     		ldr	r0, .L48+4
  82:DSF.cpp       **** 
 348              		.loc 11 82 21 view .LVU89
 349 00b2 85ED000A 		vstr.32	s0, [r5]
 350              		.loc 11 84 5 is_stmt 1 view .LVU90
 351              		.loc 11 84 40 is_stmt 0 view .LVU91
 352 00b6 FFF7FEFF 		bl	_ZN5daisy8patch_sm12DaisyPatchSM11GetAdcValueEi
 353              	.LVL17:
  85:DSF.cpp       **** 
  86:DSF.cpp       ****     // COMBINE PARAMETERS
  87:DSF.cpp       ****     cutoff          = RestrictRange(fmKnob + fmCV1 + fmCV2, 0.0f, 1.0f);
 354              		.loc 11 87 44 view .LVU92
 355 00ba 9E4A     		ldr	r2, .L48+20
 356              	.LBB231:
 357              	.LBB232:
  44:DSF.cpp       ****         return max;
 358              		.loc 11 44 5 view .LVU93
 359 00bc F7EE006A 		vmov.f32	s13, #1.0e+0
ARM GAS  C:\Users\theri\AppData\Local\Temp\cc3rAykC.s 			page 20


 360              	.LBE232:
 361              	.LBE231:
 362              		.loc 11 87 44 view .LVU94
 363 00c0 9AED006A 		vldr.32	s12, [r10]
 364 00c4 D2ED007A 		vldr.32	s15, [r2]
 365              		.loc 11 87 36 view .LVU95
 366 00c8 94ED007A 		vldr.32	s14, [r4]
 367              		.loc 11 87 44 view .LVU96
 368 00cc 77EE867A 		vadd.f32	s15, s15, s12
  84:DSF.cpp       **** 
 369              		.loc 11 84 21 view .LVU97
 370 00d0 9A4C     		ldr	r4, .L48+28
 371 00d2 84ED000A 		vstr.32	s0, [r4]
 372              		.loc 11 87 5 is_stmt 1 view .LVU98
 373              		.loc 11 87 36 is_stmt 0 view .LVU99
 374 00d6 77EE877A 		vadd.f32	s15, s15, s14
 375              	.LVL18:
 376              	.LBB236:
 377              	.LBI231:
  43:DSF.cpp       ****     if (input > max) {
 378              		.loc 11 43 7 is_stmt 1 view .LVU100
 379              	.LBB233:
  44:DSF.cpp       ****         return max;
 380              		.loc 11 44 5 view .LVU101
 381 00da F4EEE67A 		vcmpe.f32	s15, s13
 382 00de F1EE10FA 		vmrs	APSR_nzcv, FPSCR
 383 00e2 07DC     		bgt	.L40
  46:DSF.cpp       ****         return min;
 384              		.loc 11 46 12 view .LVU102
 385 00e4 F5EEC07A 		vcmpe.f32	s15, #0
 386 00e8 F1EE10FA 		vmrs	APSR_nzcv, FPSCR
 387 00ec 40F1C781 		bpl	.L43
 388 00f0 DFED936A 		vldr.32	s13, .L48+32
 389              	.L40:
  47:DSF.cpp       ****     } else {
 390              		.loc 11 47 16 is_stmt 0 view .LVU103
 391 00f4 F0EE667A 		vmov.f32	s15, s13
 392              	.LVL19:
 393              	.L10:
  47:DSF.cpp       ****     } else {
 394              		.loc 11 47 16 view .LVU104
 395              	.LBE233:
 396              	.LBE236:
  88:DSF.cpp       ****     resonance       = RestrictRange(rmKnob + rmCV, 0.0f, 1.0f);
 397              		.loc 11 88 36 view .LVU105
 398 00f8 9BED007A 		vldr.32	s14, [fp]
 399              	.LBB237:
 400              	.LBB238:
  44:DSF.cpp       ****         return max;
 401              		.loc 11 44 5 view .LVU106
 402 00fc B7EE006A 		vmov.f32	s12, #1.0e+0
 403              	.LBE238:
 404              	.LBE237:
 405              		.loc 11 88 36 view .LVU107
 406 0100 D9ED005A 		vldr.32	s11, [r9]
  87:DSF.cpp       ****     resonance       = RestrictRange(rmKnob + rmCV, 0.0f, 1.0f);
 407              		.loc 11 87 21 view .LVU108
ARM GAS  C:\Users\theri\AppData\Local\Temp\cc3rAykC.s 			page 21


 408 0104 8F4B     		ldr	r3, .L48+36
 409              		.loc 11 88 36 view .LVU109
 410 0106 37EE257A 		vadd.f32	s14, s14, s11
  87:DSF.cpp       ****     resonance       = RestrictRange(rmKnob + rmCV, 0.0f, 1.0f);
 411              		.loc 11 87 21 view .LVU110
 412 010a C3ED007A 		vstr.32	s15, [r3]
 413              		.loc 11 88 5 is_stmt 1 view .LVU111
 414              	.LVL20:
 415              	.LBB242:
 416              	.LBI237:
  43:DSF.cpp       ****     if (input > max) {
 417              		.loc 11 43 7 view .LVU112
 418              	.LBB239:
  44:DSF.cpp       ****         return max;
 419              		.loc 11 44 5 view .LVU113
 420 010e B4EEC67A 		vcmpe.f32	s14, s12
 421 0112 F1EE10FA 		vmrs	APSR_nzcv, FPSCR
 422 0116 00F3FC81 		bgt	.L26
  46:DSF.cpp       ****         return min;
 423              		.loc 11 46 12 view .LVU114
 424 011a B5EEC07A 		vcmpe.f32	s14, #0
 425 011e F1EE10FA 		vmrs	APSR_nzcv, FPSCR
 426 0122 00F1A981 		bmi	.L27
 427              	.LVL21:
 428              	.L11:
  46:DSF.cpp       ****         return min;
 429              		.loc 11 46 12 is_stmt 0 view .LVU115
 430              	.LBE239:
 431              	.LBE242:
  89:DSF.cpp       ****     spread          = RestrictRange(spreadKnob + spreadCV, 0.0f, 1.0f);
 432              		.loc 11 89 36 view .LVU116
 433 0126 95ED005A 		vldr.32	s10, [r5]
 434              	.LBB243:
 435              	.LBB244:
  44:DSF.cpp       ****         return max;
 436              		.loc 11 44 5 view .LVU117
 437 012a B7EE006A 		vmov.f32	s12, #1.0e+0
 438              	.LBE244:
 439              	.LBE243:
 440              		.loc 11 89 36 view .LVU118
 441 012e D8ED005A 		vldr.32	s11, [r8]
  88:DSF.cpp       ****     spread          = RestrictRange(spreadKnob + spreadCV, 0.0f, 1.0f);
 442              		.loc 11 88 21 view .LVU119
 443 0132 854D     		ldr	r5, .L48+40
 444              		.loc 11 89 36 view .LVU120
 445 0134 75EE855A 		vadd.f32	s11, s11, s10
  88:DSF.cpp       ****     spread          = RestrictRange(spreadKnob + spreadCV, 0.0f, 1.0f);
 446              		.loc 11 88 21 view .LVU121
 447 0138 85ED007A 		vstr.32	s14, [r5]
 448              		.loc 11 89 5 is_stmt 1 view .LVU122
 449              	.LVL22:
 450              	.LBB248:
 451              	.LBI243:
  43:DSF.cpp       ****     if (input > max) {
 452              		.loc 11 43 7 view .LVU123
 453              	.LBB245:
  44:DSF.cpp       ****         return max;
ARM GAS  C:\Users\theri\AppData\Local\Temp\cc3rAykC.s 			page 22


 454              		.loc 11 44 5 view .LVU124
 455 013c F4EEC65A 		vcmpe.f32	s11, s12
 456 0140 F1EE10FA 		vmrs	APSR_nzcv, FPSCR
 457 0144 07DC     		bgt	.L12
  46:DSF.cpp       ****         return min;
 458              		.loc 11 46 12 view .LVU125
 459 0146 F5EEC05A 		vcmpe.f32	s11, #0
 460 014a F1EE10FA 		vmrs	APSR_nzcv, FPSCR
 461 014e 40F18C81 		bpl	.L44
 462 0152 BFEE006A 		vmov.f32	s12, #-1.0e+0
 463              	.L12:
 464              	.LVL23:
  46:DSF.cpp       ****         return min;
 465              		.loc 11 46 12 is_stmt 0 view .LVU126
 466              	.LBE245:
 467              	.LBE248:
  90:DSF.cpp       **** 
  91:DSF.cpp       ****     // CALCULATE SPREAD MAP
  92:DSF.cpp       ****     // NORMALIZE SPREAD TO [-1, 1]
  93:DSF.cpp       ****     spread = (2.0f * spread) - 1.0f;
 468              		.loc 11 93 5 is_stmt 1 view .LVU127
 469              		.loc 11 93 12 is_stmt 0 view .LVU128
 470 0156 DFF82882 		ldr	r8, .L48+96
  94:DSF.cpp       ****     cutoffSquared = cutoff * cutoff;
  95:DSF.cpp       **** 
  96:DSF.cpp       ****     // WRITE CUTOFF VALUE TO LED
  97:DSF.cpp       ****     // patch.WriteCvOut(CV_OUT_2, (cutoff * 2) + 1);
  98:DSF.cpp       ****     led.Set(cutoff);
 471              		.loc 11 98 12 view .LVU129
 472 015a B0EE670A 		vmov.f32	s0, s15
  94:DSF.cpp       ****     cutoffSquared = cutoff * cutoff;
 473              		.loc 11 94 19 view .LVU130
 474 015e DFF824A2 		ldr	r10, .L48+100
 475              		.loc 11 98 12 view .LVU131
 476 0162 7A48     		ldr	r0, .L48+44
  93:DSF.cpp       ****     cutoffSquared = cutoff * cutoff;
 477              		.loc 11 93 12 view .LVU132
 478 0164 88ED006A 		vstr.32	s12, [r8]
  94:DSF.cpp       ****     cutoffSquared = cutoff * cutoff;
 479              		.loc 11 94 5 is_stmt 1 view .LVU133
  94:DSF.cpp       ****     cutoffSquared = cutoff * cutoff;
 480              		.loc 11 94 19 is_stmt 0 view .LVU134
 481 0168 CAED006A 		vstr.32	s13, [r10]
 482              		.loc 11 98 5 is_stmt 1 view .LVU135
 483              		.loc 11 98 12 is_stmt 0 view .LVU136
 484 016c FFF7FEFF 		bl	_ZN5daisy3Led3SetEf
 485              	.LVL24:
  99:DSF.cpp       ****     // led.Update();
 100:DSF.cpp       **** 
 101:DSF.cpp       ****     // COMPUTE IMAGES
 102:DSF.cpp       ****     imageL1 = RestrictRange(pow(BASE_1, -spread) * cutoffSquared, 0.0f, 1.0f) * CUTOFF_RANGE;
 486              		.loc 11 102 5 is_stmt 1 view .LVU137
 487              	.LBB249:
 488              	.LBI249:
 489              		.file 12 "c:\\program files\\daisytoolchain\\arm-none-eabi\\include\\c++\\10.2.1\\cmath"
   1:c:\program files\daisytoolchain\arm-none-eabi\include\c++\10.2.1\cmath **** // -*- C++ -*- C forwarding header.
   2:c:\program files\daisytoolchain\arm-none-eabi\include\c++\10.2.1\cmath **** 
ARM GAS  C:\Users\theri\AppData\Local\Temp\cc3rAykC.s 			page 23


   3:c:\program files\daisytoolchain\arm-none-eabi\include\c++\10.2.1\cmath **** // Copyright (C) 1997-2020 Free Software Foundation, Inc.
   4:c:\program files\daisytoolchain\arm-none-eabi\include\c++\10.2.1\cmath **** //
   5:c:\program files\daisytoolchain\arm-none-eabi\include\c++\10.2.1\cmath **** // This file is part of the GNU ISO C++ Library.  This library is free
   6:c:\program files\daisytoolchain\arm-none-eabi\include\c++\10.2.1\cmath **** // software; you can redistribute it and/or modify it under the
   7:c:\program files\daisytoolchain\arm-none-eabi\include\c++\10.2.1\cmath **** // terms of the GNU General Public License as published by the
   8:c:\program files\daisytoolchain\arm-none-eabi\include\c++\10.2.1\cmath **** // Free Software Foundation; either version 3, or (at your option)
   9:c:\program files\daisytoolchain\arm-none-eabi\include\c++\10.2.1\cmath **** // any later version.
  10:c:\program files\daisytoolchain\arm-none-eabi\include\c++\10.2.1\cmath **** 
  11:c:\program files\daisytoolchain\arm-none-eabi\include\c++\10.2.1\cmath **** // This library is distributed in the hope that it will be useful,
  12:c:\program files\daisytoolchain\arm-none-eabi\include\c++\10.2.1\cmath **** // but WITHOUT ANY WARRANTY; without even the implied warranty of
  13:c:\program files\daisytoolchain\arm-none-eabi\include\c++\10.2.1\cmath **** // MERCHANTABILITY or FITNESS FOR A PARTICULAR PURPOSE.  See the
  14:c:\program files\daisytoolchain\arm-none-eabi\include\c++\10.2.1\cmath **** // GNU General Public License for more details.
  15:c:\program files\daisytoolchain\arm-none-eabi\include\c++\10.2.1\cmath **** 
  16:c:\program files\daisytoolchain\arm-none-eabi\include\c++\10.2.1\cmath **** // Under Section 7 of GPL version 3, you are granted additional
  17:c:\program files\daisytoolchain\arm-none-eabi\include\c++\10.2.1\cmath **** // permissions described in the GCC Runtime Library Exception, version
  18:c:\program files\daisytoolchain\arm-none-eabi\include\c++\10.2.1\cmath **** // 3.1, as published by the Free Software Foundation.
  19:c:\program files\daisytoolchain\arm-none-eabi\include\c++\10.2.1\cmath **** 
  20:c:\program files\daisytoolchain\arm-none-eabi\include\c++\10.2.1\cmath **** // You should have received a copy of the GNU General Public License and
  21:c:\program files\daisytoolchain\arm-none-eabi\include\c++\10.2.1\cmath **** // a copy of the GCC Runtime Library Exception along with this program;
  22:c:\program files\daisytoolchain\arm-none-eabi\include\c++\10.2.1\cmath **** // see the files COPYING3 and COPYING.RUNTIME respectively.  If not, see
  23:c:\program files\daisytoolchain\arm-none-eabi\include\c++\10.2.1\cmath **** // <http://www.gnu.org/licenses/>.
  24:c:\program files\daisytoolchain\arm-none-eabi\include\c++\10.2.1\cmath **** 
  25:c:\program files\daisytoolchain\arm-none-eabi\include\c++\10.2.1\cmath **** /** @file include/cmath
  26:c:\program files\daisytoolchain\arm-none-eabi\include\c++\10.2.1\cmath ****  *  This is a Standard C++ Library file.  You should @c \#include this file
  27:c:\program files\daisytoolchain\arm-none-eabi\include\c++\10.2.1\cmath ****  *  in your programs, rather than any of the @a *.h implementation files.
  28:c:\program files\daisytoolchain\arm-none-eabi\include\c++\10.2.1\cmath ****  *
  29:c:\program files\daisytoolchain\arm-none-eabi\include\c++\10.2.1\cmath ****  *  This is the C++ version of the Standard C Library header @c math.h,
  30:c:\program files\daisytoolchain\arm-none-eabi\include\c++\10.2.1\cmath ****  *  and its contents are (mostly) the same as that header, but are all
  31:c:\program files\daisytoolchain\arm-none-eabi\include\c++\10.2.1\cmath ****  *  contained in the namespace @c std (except for names which are defined
  32:c:\program files\daisytoolchain\arm-none-eabi\include\c++\10.2.1\cmath ****  *  as macros in C).
  33:c:\program files\daisytoolchain\arm-none-eabi\include\c++\10.2.1\cmath ****  */
  34:c:\program files\daisytoolchain\arm-none-eabi\include\c++\10.2.1\cmath **** 
  35:c:\program files\daisytoolchain\arm-none-eabi\include\c++\10.2.1\cmath **** //
  36:c:\program files\daisytoolchain\arm-none-eabi\include\c++\10.2.1\cmath **** // ISO C++ 14882: 26.5  C library
  37:c:\program files\daisytoolchain\arm-none-eabi\include\c++\10.2.1\cmath **** //
  38:c:\program files\daisytoolchain\arm-none-eabi\include\c++\10.2.1\cmath **** 
  39:c:\program files\daisytoolchain\arm-none-eabi\include\c++\10.2.1\cmath **** #pragma GCC system_header
  40:c:\program files\daisytoolchain\arm-none-eabi\include\c++\10.2.1\cmath **** 
  41:c:\program files\daisytoolchain\arm-none-eabi\include\c++\10.2.1\cmath **** #include <bits/c++config.h>
  42:c:\program files\daisytoolchain\arm-none-eabi\include\c++\10.2.1\cmath **** #include <bits/cpp_type_traits.h>
  43:c:\program files\daisytoolchain\arm-none-eabi\include\c++\10.2.1\cmath **** #include <ext/type_traits.h>
  44:c:\program files\daisytoolchain\arm-none-eabi\include\c++\10.2.1\cmath **** #define _GLIBCXX_INCLUDE_NEXT_C_HEADERS
  45:c:\program files\daisytoolchain\arm-none-eabi\include\c++\10.2.1\cmath **** #include_next <math.h>
  46:c:\program files\daisytoolchain\arm-none-eabi\include\c++\10.2.1\cmath **** #undef _GLIBCXX_INCLUDE_NEXT_C_HEADERS
  47:c:\program files\daisytoolchain\arm-none-eabi\include\c++\10.2.1\cmath **** #include <bits/std_abs.h>
  48:c:\program files\daisytoolchain\arm-none-eabi\include\c++\10.2.1\cmath **** 
  49:c:\program files\daisytoolchain\arm-none-eabi\include\c++\10.2.1\cmath **** #ifndef _GLIBCXX_CMATH
  50:c:\program files\daisytoolchain\arm-none-eabi\include\c++\10.2.1\cmath **** #define _GLIBCXX_CMATH 1
  51:c:\program files\daisytoolchain\arm-none-eabi\include\c++\10.2.1\cmath **** 
  52:c:\program files\daisytoolchain\arm-none-eabi\include\c++\10.2.1\cmath **** // Get rid of those macros defined in <math.h> in lieu of real functions.
  53:c:\program files\daisytoolchain\arm-none-eabi\include\c++\10.2.1\cmath **** #undef div
  54:c:\program files\daisytoolchain\arm-none-eabi\include\c++\10.2.1\cmath **** #undef acos
  55:c:\program files\daisytoolchain\arm-none-eabi\include\c++\10.2.1\cmath **** #undef asin
  56:c:\program files\daisytoolchain\arm-none-eabi\include\c++\10.2.1\cmath **** #undef atan
  57:c:\program files\daisytoolchain\arm-none-eabi\include\c++\10.2.1\cmath **** #undef atan2
  58:c:\program files\daisytoolchain\arm-none-eabi\include\c++\10.2.1\cmath **** #undef ceil
  59:c:\program files\daisytoolchain\arm-none-eabi\include\c++\10.2.1\cmath **** #undef cos
ARM GAS  C:\Users\theri\AppData\Local\Temp\cc3rAykC.s 			page 24


  60:c:\program files\daisytoolchain\arm-none-eabi\include\c++\10.2.1\cmath **** #undef cosh
  61:c:\program files\daisytoolchain\arm-none-eabi\include\c++\10.2.1\cmath **** #undef exp
  62:c:\program files\daisytoolchain\arm-none-eabi\include\c++\10.2.1\cmath **** #undef fabs
  63:c:\program files\daisytoolchain\arm-none-eabi\include\c++\10.2.1\cmath **** #undef floor
  64:c:\program files\daisytoolchain\arm-none-eabi\include\c++\10.2.1\cmath **** #undef fmod
  65:c:\program files\daisytoolchain\arm-none-eabi\include\c++\10.2.1\cmath **** #undef frexp
  66:c:\program files\daisytoolchain\arm-none-eabi\include\c++\10.2.1\cmath **** #undef ldexp
  67:c:\program files\daisytoolchain\arm-none-eabi\include\c++\10.2.1\cmath **** #undef log
  68:c:\program files\daisytoolchain\arm-none-eabi\include\c++\10.2.1\cmath **** #undef log10
  69:c:\program files\daisytoolchain\arm-none-eabi\include\c++\10.2.1\cmath **** #undef modf
  70:c:\program files\daisytoolchain\arm-none-eabi\include\c++\10.2.1\cmath **** #undef pow
  71:c:\program files\daisytoolchain\arm-none-eabi\include\c++\10.2.1\cmath **** #undef sin
  72:c:\program files\daisytoolchain\arm-none-eabi\include\c++\10.2.1\cmath **** #undef sinh
  73:c:\program files\daisytoolchain\arm-none-eabi\include\c++\10.2.1\cmath **** #undef sqrt
  74:c:\program files\daisytoolchain\arm-none-eabi\include\c++\10.2.1\cmath **** #undef tan
  75:c:\program files\daisytoolchain\arm-none-eabi\include\c++\10.2.1\cmath **** #undef tanh
  76:c:\program files\daisytoolchain\arm-none-eabi\include\c++\10.2.1\cmath **** 
  77:c:\program files\daisytoolchain\arm-none-eabi\include\c++\10.2.1\cmath **** extern "C++"
  78:c:\program files\daisytoolchain\arm-none-eabi\include\c++\10.2.1\cmath **** {
  79:c:\program files\daisytoolchain\arm-none-eabi\include\c++\10.2.1\cmath **** namespace std _GLIBCXX_VISIBILITY(default)
  80:c:\program files\daisytoolchain\arm-none-eabi\include\c++\10.2.1\cmath **** {
  81:c:\program files\daisytoolchain\arm-none-eabi\include\c++\10.2.1\cmath **** _GLIBCXX_BEGIN_NAMESPACE_VERSION
  82:c:\program files\daisytoolchain\arm-none-eabi\include\c++\10.2.1\cmath **** 
  83:c:\program files\daisytoolchain\arm-none-eabi\include\c++\10.2.1\cmath ****   using ::acos;
  84:c:\program files\daisytoolchain\arm-none-eabi\include\c++\10.2.1\cmath **** 
  85:c:\program files\daisytoolchain\arm-none-eabi\include\c++\10.2.1\cmath **** #ifndef __CORRECT_ISO_CPP_MATH_H_PROTO
  86:c:\program files\daisytoolchain\arm-none-eabi\include\c++\10.2.1\cmath ****   inline _GLIBCXX_CONSTEXPR float
  87:c:\program files\daisytoolchain\arm-none-eabi\include\c++\10.2.1\cmath ****   acos(float __x)
  88:c:\program files\daisytoolchain\arm-none-eabi\include\c++\10.2.1\cmath ****   { return __builtin_acosf(__x); }
  89:c:\program files\daisytoolchain\arm-none-eabi\include\c++\10.2.1\cmath **** 
  90:c:\program files\daisytoolchain\arm-none-eabi\include\c++\10.2.1\cmath ****   inline _GLIBCXX_CONSTEXPR long double
  91:c:\program files\daisytoolchain\arm-none-eabi\include\c++\10.2.1\cmath ****   acos(long double __x)
  92:c:\program files\daisytoolchain\arm-none-eabi\include\c++\10.2.1\cmath ****   { return __builtin_acosl(__x); }
  93:c:\program files\daisytoolchain\arm-none-eabi\include\c++\10.2.1\cmath **** #endif
  94:c:\program files\daisytoolchain\arm-none-eabi\include\c++\10.2.1\cmath **** 
  95:c:\program files\daisytoolchain\arm-none-eabi\include\c++\10.2.1\cmath ****   template<typename _Tp>
  96:c:\program files\daisytoolchain\arm-none-eabi\include\c++\10.2.1\cmath ****     inline _GLIBCXX_CONSTEXPR
  97:c:\program files\daisytoolchain\arm-none-eabi\include\c++\10.2.1\cmath ****     typename __gnu_cxx::__enable_if<__is_integer<_Tp>::__value, 
  98:c:\program files\daisytoolchain\arm-none-eabi\include\c++\10.2.1\cmath ****                                     double>::__type
  99:c:\program files\daisytoolchain\arm-none-eabi\include\c++\10.2.1\cmath ****     acos(_Tp __x)
 100:c:\program files\daisytoolchain\arm-none-eabi\include\c++\10.2.1\cmath ****     { return __builtin_acos(__x); }
 101:c:\program files\daisytoolchain\arm-none-eabi\include\c++\10.2.1\cmath **** 
 102:c:\program files\daisytoolchain\arm-none-eabi\include\c++\10.2.1\cmath ****   using ::asin;
 103:c:\program files\daisytoolchain\arm-none-eabi\include\c++\10.2.1\cmath **** 
 104:c:\program files\daisytoolchain\arm-none-eabi\include\c++\10.2.1\cmath **** #ifndef __CORRECT_ISO_CPP_MATH_H_PROTO
 105:c:\program files\daisytoolchain\arm-none-eabi\include\c++\10.2.1\cmath ****   inline _GLIBCXX_CONSTEXPR float
 106:c:\program files\daisytoolchain\arm-none-eabi\include\c++\10.2.1\cmath ****   asin(float __x)
 107:c:\program files\daisytoolchain\arm-none-eabi\include\c++\10.2.1\cmath ****   { return __builtin_asinf(__x); }
 108:c:\program files\daisytoolchain\arm-none-eabi\include\c++\10.2.1\cmath **** 
 109:c:\program files\daisytoolchain\arm-none-eabi\include\c++\10.2.1\cmath ****   inline _GLIBCXX_CONSTEXPR long double
 110:c:\program files\daisytoolchain\arm-none-eabi\include\c++\10.2.1\cmath ****   asin(long double __x)
 111:c:\program files\daisytoolchain\arm-none-eabi\include\c++\10.2.1\cmath ****   { return __builtin_asinl(__x); }
 112:c:\program files\daisytoolchain\arm-none-eabi\include\c++\10.2.1\cmath **** #endif
 113:c:\program files\daisytoolchain\arm-none-eabi\include\c++\10.2.1\cmath **** 
 114:c:\program files\daisytoolchain\arm-none-eabi\include\c++\10.2.1\cmath ****   template<typename _Tp>
 115:c:\program files\daisytoolchain\arm-none-eabi\include\c++\10.2.1\cmath ****     inline _GLIBCXX_CONSTEXPR
 116:c:\program files\daisytoolchain\arm-none-eabi\include\c++\10.2.1\cmath ****     typename __gnu_cxx::__enable_if<__is_integer<_Tp>::__value,
ARM GAS  C:\Users\theri\AppData\Local\Temp\cc3rAykC.s 			page 25


 117:c:\program files\daisytoolchain\arm-none-eabi\include\c++\10.2.1\cmath ****                                     double>::__type
 118:c:\program files\daisytoolchain\arm-none-eabi\include\c++\10.2.1\cmath ****     asin(_Tp __x)
 119:c:\program files\daisytoolchain\arm-none-eabi\include\c++\10.2.1\cmath ****     { return __builtin_asin(__x); }
 120:c:\program files\daisytoolchain\arm-none-eabi\include\c++\10.2.1\cmath **** 
 121:c:\program files\daisytoolchain\arm-none-eabi\include\c++\10.2.1\cmath ****   using ::atan;
 122:c:\program files\daisytoolchain\arm-none-eabi\include\c++\10.2.1\cmath **** 
 123:c:\program files\daisytoolchain\arm-none-eabi\include\c++\10.2.1\cmath **** #ifndef __CORRECT_ISO_CPP_MATH_H_PROTO
 124:c:\program files\daisytoolchain\arm-none-eabi\include\c++\10.2.1\cmath ****   inline _GLIBCXX_CONSTEXPR float
 125:c:\program files\daisytoolchain\arm-none-eabi\include\c++\10.2.1\cmath ****   atan(float __x)
 126:c:\program files\daisytoolchain\arm-none-eabi\include\c++\10.2.1\cmath ****   { return __builtin_atanf(__x); }
 127:c:\program files\daisytoolchain\arm-none-eabi\include\c++\10.2.1\cmath **** 
 128:c:\program files\daisytoolchain\arm-none-eabi\include\c++\10.2.1\cmath ****   inline _GLIBCXX_CONSTEXPR long double
 129:c:\program files\daisytoolchain\arm-none-eabi\include\c++\10.2.1\cmath ****   atan(long double __x)
 130:c:\program files\daisytoolchain\arm-none-eabi\include\c++\10.2.1\cmath ****   { return __builtin_atanl(__x); }
 131:c:\program files\daisytoolchain\arm-none-eabi\include\c++\10.2.1\cmath **** #endif
 132:c:\program files\daisytoolchain\arm-none-eabi\include\c++\10.2.1\cmath **** 
 133:c:\program files\daisytoolchain\arm-none-eabi\include\c++\10.2.1\cmath ****   template<typename _Tp>
 134:c:\program files\daisytoolchain\arm-none-eabi\include\c++\10.2.1\cmath ****     inline _GLIBCXX_CONSTEXPR
 135:c:\program files\daisytoolchain\arm-none-eabi\include\c++\10.2.1\cmath ****     typename __gnu_cxx::__enable_if<__is_integer<_Tp>::__value,
 136:c:\program files\daisytoolchain\arm-none-eabi\include\c++\10.2.1\cmath ****                                     double>::__type
 137:c:\program files\daisytoolchain\arm-none-eabi\include\c++\10.2.1\cmath ****     atan(_Tp __x)
 138:c:\program files\daisytoolchain\arm-none-eabi\include\c++\10.2.1\cmath ****     { return __builtin_atan(__x); }
 139:c:\program files\daisytoolchain\arm-none-eabi\include\c++\10.2.1\cmath **** 
 140:c:\program files\daisytoolchain\arm-none-eabi\include\c++\10.2.1\cmath ****   using ::atan2;
 141:c:\program files\daisytoolchain\arm-none-eabi\include\c++\10.2.1\cmath **** 
 142:c:\program files\daisytoolchain\arm-none-eabi\include\c++\10.2.1\cmath **** #ifndef __CORRECT_ISO_CPP_MATH_H_PROTO
 143:c:\program files\daisytoolchain\arm-none-eabi\include\c++\10.2.1\cmath ****   inline _GLIBCXX_CONSTEXPR float
 144:c:\program files\daisytoolchain\arm-none-eabi\include\c++\10.2.1\cmath ****   atan2(float __y, float __x)
 145:c:\program files\daisytoolchain\arm-none-eabi\include\c++\10.2.1\cmath ****   { return __builtin_atan2f(__y, __x); }
 146:c:\program files\daisytoolchain\arm-none-eabi\include\c++\10.2.1\cmath **** 
 147:c:\program files\daisytoolchain\arm-none-eabi\include\c++\10.2.1\cmath ****   inline _GLIBCXX_CONSTEXPR long double
 148:c:\program files\daisytoolchain\arm-none-eabi\include\c++\10.2.1\cmath ****   atan2(long double __y, long double __x)
 149:c:\program files\daisytoolchain\arm-none-eabi\include\c++\10.2.1\cmath ****   { return __builtin_atan2l(__y, __x); }
 150:c:\program files\daisytoolchain\arm-none-eabi\include\c++\10.2.1\cmath **** #endif
 151:c:\program files\daisytoolchain\arm-none-eabi\include\c++\10.2.1\cmath **** 
 152:c:\program files\daisytoolchain\arm-none-eabi\include\c++\10.2.1\cmath ****   template<typename _Tp, typename _Up>
 153:c:\program files\daisytoolchain\arm-none-eabi\include\c++\10.2.1\cmath ****     inline _GLIBCXX_CONSTEXPR
 154:c:\program files\daisytoolchain\arm-none-eabi\include\c++\10.2.1\cmath ****     typename __gnu_cxx::__promote_2<_Tp, _Up>::__type
 155:c:\program files\daisytoolchain\arm-none-eabi\include\c++\10.2.1\cmath ****     atan2(_Tp __y, _Up __x)
 156:c:\program files\daisytoolchain\arm-none-eabi\include\c++\10.2.1\cmath ****     {
 157:c:\program files\daisytoolchain\arm-none-eabi\include\c++\10.2.1\cmath ****       typedef typename __gnu_cxx::__promote_2<_Tp, _Up>::__type __type;
 158:c:\program files\daisytoolchain\arm-none-eabi\include\c++\10.2.1\cmath ****       return atan2(__type(__y), __type(__x));
 159:c:\program files\daisytoolchain\arm-none-eabi\include\c++\10.2.1\cmath ****     }
 160:c:\program files\daisytoolchain\arm-none-eabi\include\c++\10.2.1\cmath **** 
 161:c:\program files\daisytoolchain\arm-none-eabi\include\c++\10.2.1\cmath ****   using ::ceil;
 162:c:\program files\daisytoolchain\arm-none-eabi\include\c++\10.2.1\cmath **** 
 163:c:\program files\daisytoolchain\arm-none-eabi\include\c++\10.2.1\cmath **** #ifndef __CORRECT_ISO_CPP_MATH_H_PROTO
 164:c:\program files\daisytoolchain\arm-none-eabi\include\c++\10.2.1\cmath ****   inline _GLIBCXX_CONSTEXPR float
 165:c:\program files\daisytoolchain\arm-none-eabi\include\c++\10.2.1\cmath ****   ceil(float __x)
 166:c:\program files\daisytoolchain\arm-none-eabi\include\c++\10.2.1\cmath ****   { return __builtin_ceilf(__x); }
 167:c:\program files\daisytoolchain\arm-none-eabi\include\c++\10.2.1\cmath **** 
 168:c:\program files\daisytoolchain\arm-none-eabi\include\c++\10.2.1\cmath ****   inline _GLIBCXX_CONSTEXPR long double
 169:c:\program files\daisytoolchain\arm-none-eabi\include\c++\10.2.1\cmath ****   ceil(long double __x)
 170:c:\program files\daisytoolchain\arm-none-eabi\include\c++\10.2.1\cmath ****   { return __builtin_ceill(__x); }
 171:c:\program files\daisytoolchain\arm-none-eabi\include\c++\10.2.1\cmath **** #endif
 172:c:\program files\daisytoolchain\arm-none-eabi\include\c++\10.2.1\cmath **** 
 173:c:\program files\daisytoolchain\arm-none-eabi\include\c++\10.2.1\cmath ****   template<typename _Tp>
ARM GAS  C:\Users\theri\AppData\Local\Temp\cc3rAykC.s 			page 26


 174:c:\program files\daisytoolchain\arm-none-eabi\include\c++\10.2.1\cmath ****     inline _GLIBCXX_CONSTEXPR
 175:c:\program files\daisytoolchain\arm-none-eabi\include\c++\10.2.1\cmath ****     typename __gnu_cxx::__enable_if<__is_integer<_Tp>::__value, 
 176:c:\program files\daisytoolchain\arm-none-eabi\include\c++\10.2.1\cmath ****                                     double>::__type
 177:c:\program files\daisytoolchain\arm-none-eabi\include\c++\10.2.1\cmath ****     ceil(_Tp __x)
 178:c:\program files\daisytoolchain\arm-none-eabi\include\c++\10.2.1\cmath ****     { return __builtin_ceil(__x); }
 179:c:\program files\daisytoolchain\arm-none-eabi\include\c++\10.2.1\cmath **** 
 180:c:\program files\daisytoolchain\arm-none-eabi\include\c++\10.2.1\cmath ****   using ::cos;
 181:c:\program files\daisytoolchain\arm-none-eabi\include\c++\10.2.1\cmath **** 
 182:c:\program files\daisytoolchain\arm-none-eabi\include\c++\10.2.1\cmath **** #ifndef __CORRECT_ISO_CPP_MATH_H_PROTO
 183:c:\program files\daisytoolchain\arm-none-eabi\include\c++\10.2.1\cmath ****   inline _GLIBCXX_CONSTEXPR float
 184:c:\program files\daisytoolchain\arm-none-eabi\include\c++\10.2.1\cmath ****   cos(float __x)
 185:c:\program files\daisytoolchain\arm-none-eabi\include\c++\10.2.1\cmath ****   { return __builtin_cosf(__x); }
 186:c:\program files\daisytoolchain\arm-none-eabi\include\c++\10.2.1\cmath **** 
 187:c:\program files\daisytoolchain\arm-none-eabi\include\c++\10.2.1\cmath ****   inline _GLIBCXX_CONSTEXPR long double
 188:c:\program files\daisytoolchain\arm-none-eabi\include\c++\10.2.1\cmath ****   cos(long double __x)
 189:c:\program files\daisytoolchain\arm-none-eabi\include\c++\10.2.1\cmath ****   { return __builtin_cosl(__x); }
 190:c:\program files\daisytoolchain\arm-none-eabi\include\c++\10.2.1\cmath **** #endif
 191:c:\program files\daisytoolchain\arm-none-eabi\include\c++\10.2.1\cmath **** 
 192:c:\program files\daisytoolchain\arm-none-eabi\include\c++\10.2.1\cmath ****   template<typename _Tp>
 193:c:\program files\daisytoolchain\arm-none-eabi\include\c++\10.2.1\cmath ****     inline _GLIBCXX_CONSTEXPR
 194:c:\program files\daisytoolchain\arm-none-eabi\include\c++\10.2.1\cmath ****     typename __gnu_cxx::__enable_if<__is_integer<_Tp>::__value,
 195:c:\program files\daisytoolchain\arm-none-eabi\include\c++\10.2.1\cmath ****                                     double>::__type
 196:c:\program files\daisytoolchain\arm-none-eabi\include\c++\10.2.1\cmath ****     cos(_Tp __x)
 197:c:\program files\daisytoolchain\arm-none-eabi\include\c++\10.2.1\cmath ****     { return __builtin_cos(__x); }
 198:c:\program files\daisytoolchain\arm-none-eabi\include\c++\10.2.1\cmath **** 
 199:c:\program files\daisytoolchain\arm-none-eabi\include\c++\10.2.1\cmath ****   using ::cosh;
 200:c:\program files\daisytoolchain\arm-none-eabi\include\c++\10.2.1\cmath **** 
 201:c:\program files\daisytoolchain\arm-none-eabi\include\c++\10.2.1\cmath **** #ifndef __CORRECT_ISO_CPP_MATH_H_PROTO
 202:c:\program files\daisytoolchain\arm-none-eabi\include\c++\10.2.1\cmath ****   inline _GLIBCXX_CONSTEXPR float
 203:c:\program files\daisytoolchain\arm-none-eabi\include\c++\10.2.1\cmath ****   cosh(float __x)
 204:c:\program files\daisytoolchain\arm-none-eabi\include\c++\10.2.1\cmath ****   { return __builtin_coshf(__x); }
 205:c:\program files\daisytoolchain\arm-none-eabi\include\c++\10.2.1\cmath **** 
 206:c:\program files\daisytoolchain\arm-none-eabi\include\c++\10.2.1\cmath ****   inline _GLIBCXX_CONSTEXPR long double
 207:c:\program files\daisytoolchain\arm-none-eabi\include\c++\10.2.1\cmath ****   cosh(long double __x)
 208:c:\program files\daisytoolchain\arm-none-eabi\include\c++\10.2.1\cmath ****   { return __builtin_coshl(__x); }
 209:c:\program files\daisytoolchain\arm-none-eabi\include\c++\10.2.1\cmath **** #endif
 210:c:\program files\daisytoolchain\arm-none-eabi\include\c++\10.2.1\cmath **** 
 211:c:\program files\daisytoolchain\arm-none-eabi\include\c++\10.2.1\cmath ****   template<typename _Tp>
 212:c:\program files\daisytoolchain\arm-none-eabi\include\c++\10.2.1\cmath ****     inline _GLIBCXX_CONSTEXPR
 213:c:\program files\daisytoolchain\arm-none-eabi\include\c++\10.2.1\cmath ****     typename __gnu_cxx::__enable_if<__is_integer<_Tp>::__value,
 214:c:\program files\daisytoolchain\arm-none-eabi\include\c++\10.2.1\cmath ****                                     double>::__type
 215:c:\program files\daisytoolchain\arm-none-eabi\include\c++\10.2.1\cmath ****     cosh(_Tp __x)
 216:c:\program files\daisytoolchain\arm-none-eabi\include\c++\10.2.1\cmath ****     { return __builtin_cosh(__x); }
 217:c:\program files\daisytoolchain\arm-none-eabi\include\c++\10.2.1\cmath **** 
 218:c:\program files\daisytoolchain\arm-none-eabi\include\c++\10.2.1\cmath ****   using ::exp;
 219:c:\program files\daisytoolchain\arm-none-eabi\include\c++\10.2.1\cmath **** 
 220:c:\program files\daisytoolchain\arm-none-eabi\include\c++\10.2.1\cmath **** #ifndef __CORRECT_ISO_CPP_MATH_H_PROTO
 221:c:\program files\daisytoolchain\arm-none-eabi\include\c++\10.2.1\cmath ****   inline _GLIBCXX_CONSTEXPR float
 222:c:\program files\daisytoolchain\arm-none-eabi\include\c++\10.2.1\cmath ****   exp(float __x)
 223:c:\program files\daisytoolchain\arm-none-eabi\include\c++\10.2.1\cmath ****   { return __builtin_expf(__x); }
 224:c:\program files\daisytoolchain\arm-none-eabi\include\c++\10.2.1\cmath **** 
 225:c:\program files\daisytoolchain\arm-none-eabi\include\c++\10.2.1\cmath ****   inline _GLIBCXX_CONSTEXPR long double
 226:c:\program files\daisytoolchain\arm-none-eabi\include\c++\10.2.1\cmath ****   exp(long double __x)
 227:c:\program files\daisytoolchain\arm-none-eabi\include\c++\10.2.1\cmath ****   { return __builtin_expl(__x); }
 228:c:\program files\daisytoolchain\arm-none-eabi\include\c++\10.2.1\cmath **** #endif
 229:c:\program files\daisytoolchain\arm-none-eabi\include\c++\10.2.1\cmath **** 
 230:c:\program files\daisytoolchain\arm-none-eabi\include\c++\10.2.1\cmath ****   template<typename _Tp>
ARM GAS  C:\Users\theri\AppData\Local\Temp\cc3rAykC.s 			page 27


 231:c:\program files\daisytoolchain\arm-none-eabi\include\c++\10.2.1\cmath ****     inline _GLIBCXX_CONSTEXPR
 232:c:\program files\daisytoolchain\arm-none-eabi\include\c++\10.2.1\cmath ****     typename __gnu_cxx::__enable_if<__is_integer<_Tp>::__value,
 233:c:\program files\daisytoolchain\arm-none-eabi\include\c++\10.2.1\cmath ****                                     double>::__type
 234:c:\program files\daisytoolchain\arm-none-eabi\include\c++\10.2.1\cmath ****     exp(_Tp __x)
 235:c:\program files\daisytoolchain\arm-none-eabi\include\c++\10.2.1\cmath ****     { return __builtin_exp(__x); }
 236:c:\program files\daisytoolchain\arm-none-eabi\include\c++\10.2.1\cmath **** 
 237:c:\program files\daisytoolchain\arm-none-eabi\include\c++\10.2.1\cmath ****   using ::fabs;
 238:c:\program files\daisytoolchain\arm-none-eabi\include\c++\10.2.1\cmath **** 
 239:c:\program files\daisytoolchain\arm-none-eabi\include\c++\10.2.1\cmath **** #ifndef __CORRECT_ISO_CPP_MATH_H_PROTO
 240:c:\program files\daisytoolchain\arm-none-eabi\include\c++\10.2.1\cmath ****   inline _GLIBCXX_CONSTEXPR float
 241:c:\program files\daisytoolchain\arm-none-eabi\include\c++\10.2.1\cmath ****   fabs(float __x)
 242:c:\program files\daisytoolchain\arm-none-eabi\include\c++\10.2.1\cmath ****   { return __builtin_fabsf(__x); }
 243:c:\program files\daisytoolchain\arm-none-eabi\include\c++\10.2.1\cmath **** 
 244:c:\program files\daisytoolchain\arm-none-eabi\include\c++\10.2.1\cmath ****   inline _GLIBCXX_CONSTEXPR long double
 245:c:\program files\daisytoolchain\arm-none-eabi\include\c++\10.2.1\cmath ****   fabs(long double __x)
 246:c:\program files\daisytoolchain\arm-none-eabi\include\c++\10.2.1\cmath ****   { return __builtin_fabsl(__x); }
 247:c:\program files\daisytoolchain\arm-none-eabi\include\c++\10.2.1\cmath **** #endif
 248:c:\program files\daisytoolchain\arm-none-eabi\include\c++\10.2.1\cmath **** 
 249:c:\program files\daisytoolchain\arm-none-eabi\include\c++\10.2.1\cmath ****   template<typename _Tp>
 250:c:\program files\daisytoolchain\arm-none-eabi\include\c++\10.2.1\cmath ****     inline _GLIBCXX_CONSTEXPR
 251:c:\program files\daisytoolchain\arm-none-eabi\include\c++\10.2.1\cmath ****     typename __gnu_cxx::__enable_if<__is_integer<_Tp>::__value,
 252:c:\program files\daisytoolchain\arm-none-eabi\include\c++\10.2.1\cmath ****                                     double>::__type
 253:c:\program files\daisytoolchain\arm-none-eabi\include\c++\10.2.1\cmath ****     fabs(_Tp __x)
 254:c:\program files\daisytoolchain\arm-none-eabi\include\c++\10.2.1\cmath ****     { return __builtin_fabs(__x); }
 255:c:\program files\daisytoolchain\arm-none-eabi\include\c++\10.2.1\cmath **** 
 256:c:\program files\daisytoolchain\arm-none-eabi\include\c++\10.2.1\cmath ****   using ::floor;
 257:c:\program files\daisytoolchain\arm-none-eabi\include\c++\10.2.1\cmath **** 
 258:c:\program files\daisytoolchain\arm-none-eabi\include\c++\10.2.1\cmath **** #ifndef __CORRECT_ISO_CPP_MATH_H_PROTO
 259:c:\program files\daisytoolchain\arm-none-eabi\include\c++\10.2.1\cmath ****   inline _GLIBCXX_CONSTEXPR float
 260:c:\program files\daisytoolchain\arm-none-eabi\include\c++\10.2.1\cmath ****   floor(float __x)
 261:c:\program files\daisytoolchain\arm-none-eabi\include\c++\10.2.1\cmath ****   { return __builtin_floorf(__x); }
 262:c:\program files\daisytoolchain\arm-none-eabi\include\c++\10.2.1\cmath **** 
 263:c:\program files\daisytoolchain\arm-none-eabi\include\c++\10.2.1\cmath ****   inline _GLIBCXX_CONSTEXPR long double
 264:c:\program files\daisytoolchain\arm-none-eabi\include\c++\10.2.1\cmath ****   floor(long double __x)
 265:c:\program files\daisytoolchain\arm-none-eabi\include\c++\10.2.1\cmath ****   { return __builtin_floorl(__x); }
 266:c:\program files\daisytoolchain\arm-none-eabi\include\c++\10.2.1\cmath **** #endif
 267:c:\program files\daisytoolchain\arm-none-eabi\include\c++\10.2.1\cmath **** 
 268:c:\program files\daisytoolchain\arm-none-eabi\include\c++\10.2.1\cmath ****   template<typename _Tp>
 269:c:\program files\daisytoolchain\arm-none-eabi\include\c++\10.2.1\cmath ****     inline _GLIBCXX_CONSTEXPR
 270:c:\program files\daisytoolchain\arm-none-eabi\include\c++\10.2.1\cmath ****     typename __gnu_cxx::__enable_if<__is_integer<_Tp>::__value,
 271:c:\program files\daisytoolchain\arm-none-eabi\include\c++\10.2.1\cmath ****                                     double>::__type
 272:c:\program files\daisytoolchain\arm-none-eabi\include\c++\10.2.1\cmath ****     floor(_Tp __x)
 273:c:\program files\daisytoolchain\arm-none-eabi\include\c++\10.2.1\cmath ****     { return __builtin_floor(__x); }
 274:c:\program files\daisytoolchain\arm-none-eabi\include\c++\10.2.1\cmath **** 
 275:c:\program files\daisytoolchain\arm-none-eabi\include\c++\10.2.1\cmath ****   using ::fmod;
 276:c:\program files\daisytoolchain\arm-none-eabi\include\c++\10.2.1\cmath **** 
 277:c:\program files\daisytoolchain\arm-none-eabi\include\c++\10.2.1\cmath **** #ifndef __CORRECT_ISO_CPP_MATH_H_PROTO
 278:c:\program files\daisytoolchain\arm-none-eabi\include\c++\10.2.1\cmath ****   inline _GLIBCXX_CONSTEXPR float
 279:c:\program files\daisytoolchain\arm-none-eabi\include\c++\10.2.1\cmath ****   fmod(float __x, float __y)
 280:c:\program files\daisytoolchain\arm-none-eabi\include\c++\10.2.1\cmath ****   { return __builtin_fmodf(__x, __y); }
 281:c:\program files\daisytoolchain\arm-none-eabi\include\c++\10.2.1\cmath **** 
 282:c:\program files\daisytoolchain\arm-none-eabi\include\c++\10.2.1\cmath ****   inline _GLIBCXX_CONSTEXPR long double
 283:c:\program files\daisytoolchain\arm-none-eabi\include\c++\10.2.1\cmath ****   fmod(long double __x, long double __y)
 284:c:\program files\daisytoolchain\arm-none-eabi\include\c++\10.2.1\cmath ****   { return __builtin_fmodl(__x, __y); }
 285:c:\program files\daisytoolchain\arm-none-eabi\include\c++\10.2.1\cmath **** #endif
 286:c:\program files\daisytoolchain\arm-none-eabi\include\c++\10.2.1\cmath **** 
 287:c:\program files\daisytoolchain\arm-none-eabi\include\c++\10.2.1\cmath ****   template<typename _Tp, typename _Up>
ARM GAS  C:\Users\theri\AppData\Local\Temp\cc3rAykC.s 			page 28


 288:c:\program files\daisytoolchain\arm-none-eabi\include\c++\10.2.1\cmath ****     inline _GLIBCXX_CONSTEXPR
 289:c:\program files\daisytoolchain\arm-none-eabi\include\c++\10.2.1\cmath ****     typename __gnu_cxx::__promote_2<_Tp, _Up>::__type
 290:c:\program files\daisytoolchain\arm-none-eabi\include\c++\10.2.1\cmath ****     fmod(_Tp __x, _Up __y)
 291:c:\program files\daisytoolchain\arm-none-eabi\include\c++\10.2.1\cmath ****     {
 292:c:\program files\daisytoolchain\arm-none-eabi\include\c++\10.2.1\cmath ****       typedef typename __gnu_cxx::__promote_2<_Tp, _Up>::__type __type;
 293:c:\program files\daisytoolchain\arm-none-eabi\include\c++\10.2.1\cmath ****       return fmod(__type(__x), __type(__y));
 294:c:\program files\daisytoolchain\arm-none-eabi\include\c++\10.2.1\cmath ****     }
 295:c:\program files\daisytoolchain\arm-none-eabi\include\c++\10.2.1\cmath **** 
 296:c:\program files\daisytoolchain\arm-none-eabi\include\c++\10.2.1\cmath ****   using ::frexp;
 297:c:\program files\daisytoolchain\arm-none-eabi\include\c++\10.2.1\cmath **** 
 298:c:\program files\daisytoolchain\arm-none-eabi\include\c++\10.2.1\cmath **** #ifndef __CORRECT_ISO_CPP_MATH_H_PROTO
 299:c:\program files\daisytoolchain\arm-none-eabi\include\c++\10.2.1\cmath ****   inline float
 300:c:\program files\daisytoolchain\arm-none-eabi\include\c++\10.2.1\cmath ****   frexp(float __x, int* __exp)
 301:c:\program files\daisytoolchain\arm-none-eabi\include\c++\10.2.1\cmath ****   { return __builtin_frexpf(__x, __exp); }
 302:c:\program files\daisytoolchain\arm-none-eabi\include\c++\10.2.1\cmath **** 
 303:c:\program files\daisytoolchain\arm-none-eabi\include\c++\10.2.1\cmath ****   inline long double
 304:c:\program files\daisytoolchain\arm-none-eabi\include\c++\10.2.1\cmath ****   frexp(long double __x, int* __exp)
 305:c:\program files\daisytoolchain\arm-none-eabi\include\c++\10.2.1\cmath ****   { return __builtin_frexpl(__x, __exp); }
 306:c:\program files\daisytoolchain\arm-none-eabi\include\c++\10.2.1\cmath **** #endif
 307:c:\program files\daisytoolchain\arm-none-eabi\include\c++\10.2.1\cmath **** 
 308:c:\program files\daisytoolchain\arm-none-eabi\include\c++\10.2.1\cmath ****   template<typename _Tp>
 309:c:\program files\daisytoolchain\arm-none-eabi\include\c++\10.2.1\cmath ****     inline _GLIBCXX_CONSTEXPR
 310:c:\program files\daisytoolchain\arm-none-eabi\include\c++\10.2.1\cmath ****     typename __gnu_cxx::__enable_if<__is_integer<_Tp>::__value, 
 311:c:\program files\daisytoolchain\arm-none-eabi\include\c++\10.2.1\cmath ****                                     double>::__type
 312:c:\program files\daisytoolchain\arm-none-eabi\include\c++\10.2.1\cmath ****     frexp(_Tp __x, int* __exp)
 313:c:\program files\daisytoolchain\arm-none-eabi\include\c++\10.2.1\cmath ****     { return __builtin_frexp(__x, __exp); }
 314:c:\program files\daisytoolchain\arm-none-eabi\include\c++\10.2.1\cmath **** 
 315:c:\program files\daisytoolchain\arm-none-eabi\include\c++\10.2.1\cmath ****   using ::ldexp;
 316:c:\program files\daisytoolchain\arm-none-eabi\include\c++\10.2.1\cmath **** 
 317:c:\program files\daisytoolchain\arm-none-eabi\include\c++\10.2.1\cmath **** #ifndef __CORRECT_ISO_CPP_MATH_H_PROTO
 318:c:\program files\daisytoolchain\arm-none-eabi\include\c++\10.2.1\cmath ****   inline _GLIBCXX_CONSTEXPR float
 319:c:\program files\daisytoolchain\arm-none-eabi\include\c++\10.2.1\cmath ****   ldexp(float __x, int __exp)
 320:c:\program files\daisytoolchain\arm-none-eabi\include\c++\10.2.1\cmath ****   { return __builtin_ldexpf(__x, __exp); }
 321:c:\program files\daisytoolchain\arm-none-eabi\include\c++\10.2.1\cmath **** 
 322:c:\program files\daisytoolchain\arm-none-eabi\include\c++\10.2.1\cmath ****   inline _GLIBCXX_CONSTEXPR long double
 323:c:\program files\daisytoolchain\arm-none-eabi\include\c++\10.2.1\cmath ****   ldexp(long double __x, int __exp)
 324:c:\program files\daisytoolchain\arm-none-eabi\include\c++\10.2.1\cmath ****   { return __builtin_ldexpl(__x, __exp); }
 325:c:\program files\daisytoolchain\arm-none-eabi\include\c++\10.2.1\cmath **** #endif
 326:c:\program files\daisytoolchain\arm-none-eabi\include\c++\10.2.1\cmath **** 
 327:c:\program files\daisytoolchain\arm-none-eabi\include\c++\10.2.1\cmath ****   template<typename _Tp>
 328:c:\program files\daisytoolchain\arm-none-eabi\include\c++\10.2.1\cmath ****     inline _GLIBCXX_CONSTEXPR
 329:c:\program files\daisytoolchain\arm-none-eabi\include\c++\10.2.1\cmath ****     typename __gnu_cxx::__enable_if<__is_integer<_Tp>::__value, 
 330:c:\program files\daisytoolchain\arm-none-eabi\include\c++\10.2.1\cmath ****                                     double>::__type
 331:c:\program files\daisytoolchain\arm-none-eabi\include\c++\10.2.1\cmath ****     ldexp(_Tp __x, int __exp)
 332:c:\program files\daisytoolchain\arm-none-eabi\include\c++\10.2.1\cmath ****     { return __builtin_ldexp(__x, __exp); }
 333:c:\program files\daisytoolchain\arm-none-eabi\include\c++\10.2.1\cmath **** 
 334:c:\program files\daisytoolchain\arm-none-eabi\include\c++\10.2.1\cmath ****   using ::log;
 335:c:\program files\daisytoolchain\arm-none-eabi\include\c++\10.2.1\cmath **** 
 336:c:\program files\daisytoolchain\arm-none-eabi\include\c++\10.2.1\cmath **** #ifndef __CORRECT_ISO_CPP_MATH_H_PROTO
 337:c:\program files\daisytoolchain\arm-none-eabi\include\c++\10.2.1\cmath ****   inline _GLIBCXX_CONSTEXPR float
 338:c:\program files\daisytoolchain\arm-none-eabi\include\c++\10.2.1\cmath ****   log(float __x)
 339:c:\program files\daisytoolchain\arm-none-eabi\include\c++\10.2.1\cmath ****   { return __builtin_logf(__x); }
 340:c:\program files\daisytoolchain\arm-none-eabi\include\c++\10.2.1\cmath **** 
 341:c:\program files\daisytoolchain\arm-none-eabi\include\c++\10.2.1\cmath ****   inline _GLIBCXX_CONSTEXPR long double
 342:c:\program files\daisytoolchain\arm-none-eabi\include\c++\10.2.1\cmath ****   log(long double __x)
 343:c:\program files\daisytoolchain\arm-none-eabi\include\c++\10.2.1\cmath ****   { return __builtin_logl(__x); }
 344:c:\program files\daisytoolchain\arm-none-eabi\include\c++\10.2.1\cmath **** #endif
ARM GAS  C:\Users\theri\AppData\Local\Temp\cc3rAykC.s 			page 29


 345:c:\program files\daisytoolchain\arm-none-eabi\include\c++\10.2.1\cmath **** 
 346:c:\program files\daisytoolchain\arm-none-eabi\include\c++\10.2.1\cmath ****   template<typename _Tp>
 347:c:\program files\daisytoolchain\arm-none-eabi\include\c++\10.2.1\cmath ****     inline _GLIBCXX_CONSTEXPR
 348:c:\program files\daisytoolchain\arm-none-eabi\include\c++\10.2.1\cmath ****     typename __gnu_cxx::__enable_if<__is_integer<_Tp>::__value, 
 349:c:\program files\daisytoolchain\arm-none-eabi\include\c++\10.2.1\cmath ****                                     double>::__type
 350:c:\program files\daisytoolchain\arm-none-eabi\include\c++\10.2.1\cmath ****     log(_Tp __x)
 351:c:\program files\daisytoolchain\arm-none-eabi\include\c++\10.2.1\cmath ****     { return __builtin_log(__x); }
 352:c:\program files\daisytoolchain\arm-none-eabi\include\c++\10.2.1\cmath **** 
 353:c:\program files\daisytoolchain\arm-none-eabi\include\c++\10.2.1\cmath ****   using ::log10;
 354:c:\program files\daisytoolchain\arm-none-eabi\include\c++\10.2.1\cmath **** 
 355:c:\program files\daisytoolchain\arm-none-eabi\include\c++\10.2.1\cmath **** #ifndef __CORRECT_ISO_CPP_MATH_H_PROTO
 356:c:\program files\daisytoolchain\arm-none-eabi\include\c++\10.2.1\cmath ****   inline _GLIBCXX_CONSTEXPR float
 357:c:\program files\daisytoolchain\arm-none-eabi\include\c++\10.2.1\cmath ****   log10(float __x)
 358:c:\program files\daisytoolchain\arm-none-eabi\include\c++\10.2.1\cmath ****   { return __builtin_log10f(__x); }
 359:c:\program files\daisytoolchain\arm-none-eabi\include\c++\10.2.1\cmath **** 
 360:c:\program files\daisytoolchain\arm-none-eabi\include\c++\10.2.1\cmath ****   inline _GLIBCXX_CONSTEXPR long double
 361:c:\program files\daisytoolchain\arm-none-eabi\include\c++\10.2.1\cmath ****   log10(long double __x)
 362:c:\program files\daisytoolchain\arm-none-eabi\include\c++\10.2.1\cmath ****   { return __builtin_log10l(__x); }
 363:c:\program files\daisytoolchain\arm-none-eabi\include\c++\10.2.1\cmath **** #endif
 364:c:\program files\daisytoolchain\arm-none-eabi\include\c++\10.2.1\cmath **** 
 365:c:\program files\daisytoolchain\arm-none-eabi\include\c++\10.2.1\cmath ****   template<typename _Tp>
 366:c:\program files\daisytoolchain\arm-none-eabi\include\c++\10.2.1\cmath ****     inline _GLIBCXX_CONSTEXPR
 367:c:\program files\daisytoolchain\arm-none-eabi\include\c++\10.2.1\cmath ****     typename __gnu_cxx::__enable_if<__is_integer<_Tp>::__value,
 368:c:\program files\daisytoolchain\arm-none-eabi\include\c++\10.2.1\cmath ****                                     double>::__type
 369:c:\program files\daisytoolchain\arm-none-eabi\include\c++\10.2.1\cmath ****     log10(_Tp __x)
 370:c:\program files\daisytoolchain\arm-none-eabi\include\c++\10.2.1\cmath ****     { return __builtin_log10(__x); }
 371:c:\program files\daisytoolchain\arm-none-eabi\include\c++\10.2.1\cmath **** 
 372:c:\program files\daisytoolchain\arm-none-eabi\include\c++\10.2.1\cmath ****   using ::modf;
 373:c:\program files\daisytoolchain\arm-none-eabi\include\c++\10.2.1\cmath **** 
 374:c:\program files\daisytoolchain\arm-none-eabi\include\c++\10.2.1\cmath **** #ifndef __CORRECT_ISO_CPP_MATH_H_PROTO
 375:c:\program files\daisytoolchain\arm-none-eabi\include\c++\10.2.1\cmath ****   inline float
 376:c:\program files\daisytoolchain\arm-none-eabi\include\c++\10.2.1\cmath ****   modf(float __x, float* __iptr)
 377:c:\program files\daisytoolchain\arm-none-eabi\include\c++\10.2.1\cmath ****   { return __builtin_modff(__x, __iptr); }
 378:c:\program files\daisytoolchain\arm-none-eabi\include\c++\10.2.1\cmath **** 
 379:c:\program files\daisytoolchain\arm-none-eabi\include\c++\10.2.1\cmath ****   inline long double
 380:c:\program files\daisytoolchain\arm-none-eabi\include\c++\10.2.1\cmath ****   modf(long double __x, long double* __iptr)
 381:c:\program files\daisytoolchain\arm-none-eabi\include\c++\10.2.1\cmath ****   { return __builtin_modfl(__x, __iptr); }
 382:c:\program files\daisytoolchain\arm-none-eabi\include\c++\10.2.1\cmath **** #endif
 383:c:\program files\daisytoolchain\arm-none-eabi\include\c++\10.2.1\cmath **** 
 384:c:\program files\daisytoolchain\arm-none-eabi\include\c++\10.2.1\cmath ****   using ::pow;
 385:c:\program files\daisytoolchain\arm-none-eabi\include\c++\10.2.1\cmath **** 
 386:c:\program files\daisytoolchain\arm-none-eabi\include\c++\10.2.1\cmath **** #ifndef __CORRECT_ISO_CPP_MATH_H_PROTO
 387:c:\program files\daisytoolchain\arm-none-eabi\include\c++\10.2.1\cmath ****   inline _GLIBCXX_CONSTEXPR float
 388:c:\program files\daisytoolchain\arm-none-eabi\include\c++\10.2.1\cmath ****   pow(float __x, float __y)
 490              		.loc 12 388 3 view .LVU138
 491              	.LBB250:
 389:c:\program files\daisytoolchain\arm-none-eabi\include\c++\10.2.1\cmath ****   { return __builtin_powf(__x, __y); }
 492              		.loc 12 389 5 view .LVU139
 493              	.LBE250:
 494              	.LBE249:
 495              		.loc 11 102 32 is_stmt 0 view .LVU140
 496 0170 D8ED000A 		vldr.32	s1, [r8]
 497              	.LBB252:
 498              	.LBB251:
 499              		.loc 12 389 26 view .LVU141
 500 0174 B1EE000A 		vmov.f32	s0, #4.0e+0
 501 0178 F1EE600A 		vneg.f32	s1, s1
ARM GAS  C:\Users\theri\AppData\Local\Temp\cc3rAykC.s 			page 30


 502              	.LVL25:
 503              		.loc 12 389 26 view .LVU142
 504 017c FFF7FEFF 		bl	powf
 505              	.LVL26:
 506              		.loc 12 389 26 view .LVU143
 507              	.LBE251:
 508              	.LBE252:
 509              		.loc 11 102 28 view .LVU144
 510 0180 DAED007A 		vldr.32	s15, [r10]
 511 0184 20EE270A 		vmul.f32	s0, s0, s15
 512              	.LVL27:
 513              	.LBB253:
 514              	.LBI253:
  43:DSF.cpp       ****     if (input > max) {
 515              		.loc 11 43 7 is_stmt 1 view .LVU145
 516              	.LBB254:
  44:DSF.cpp       ****         return max;
 517              		.loc 11 44 5 view .LVU146
 518 0188 F7EE007A 		vmov.f32	s15, #1.0e+0
 519 018c B4EEE70A 		vcmpe.f32	s0, s15
 520 0190 F1EE10FA 		vmrs	APSR_nzcv, FPSCR
 521 0194 00F3BA81 		bgt	.L30
  46:DSF.cpp       ****         return min;
 522              		.loc 11 46 12 view .LVU147
 523 0198 B5EEC00A 		vcmpe.f32	s0, #0
 524 019c F1EE10FA 		vmrs	APSR_nzcv, FPSCR
 525 01a0 00F16081 		bmi	.L31
  49:DSF.cpp       ****     }
 526              		.loc 11 49 9 view .LVU148
 527              	.LBE254:
 528              	.LBE253:
 529              		.loc 11 102 79 is_stmt 0 view .LVU149
 530 01a4 DFED6A7A 		vldr.32	s15, .L48+48
 531 01a8 60EE277A 		vmul.f32	s15, s0, s15
 532              	.L13:
 533              	.LVL28:
 534              		.loc 11 102 13 view .LVU150
 535 01ac DFF8D8B1 		ldr	fp, .L48+104
 536              	.LBB257:
 537              	.LBB258:
 538              		.loc 12 389 26 view .LVU151
 539 01b0 D8ED000A 		vldr.32	s1, [r8]
 540 01b4 9FED670A 		vldr.32	s0, .L48+52
 541              	.LBE258:
 542              	.LBE257:
 543              		.loc 11 102 13 view .LVU152
 544 01b8 CBED007A 		vstr.32	s15, [fp]
 103:DSF.cpp       ****     imageL2 = RestrictRange(pow(BASE_2, spread) * cutoffSquared, 0.0f, 1.0f) * CUTOFF_RANGE;
 545              		.loc 11 103 5 is_stmt 1 view .LVU153
 546              	.LVL29:
 547              	.LBB260:
 548              	.LBI257:
 388:c:\program files\daisytoolchain\arm-none-eabi\include\c++\10.2.1\cmath ****   { return __builtin_powf(__x, __y); }
 549              		.loc 12 388 3 view .LVU154
 550              	.LBB259:
 551              		.loc 12 389 5 view .LVU155
 552              		.loc 12 389 26 is_stmt 0 view .LVU156
ARM GAS  C:\Users\theri\AppData\Local\Temp\cc3rAykC.s 			page 31


 553 01bc FFF7FEFF 		bl	powf
 554              	.LVL30:
 555              		.loc 12 389 26 view .LVU157
 556              	.LBE259:
 557              	.LBE260:
 558              		.loc 11 103 28 view .LVU158
 559 01c0 DAED007A 		vldr.32	s15, [r10]
 560 01c4 20EE270A 		vmul.f32	s0, s0, s15
 561              	.LVL31:
 562              	.LBB261:
 563              	.LBI261:
  43:DSF.cpp       ****     if (input > max) {
 564              		.loc 11 43 7 is_stmt 1 view .LVU159
 565              	.LBB262:
  44:DSF.cpp       ****         return max;
 566              		.loc 11 44 5 view .LVU160
 567 01c8 F7EE007A 		vmov.f32	s15, #1.0e+0
 568 01cc B4EEE70A 		vcmpe.f32	s0, s15
 569 01d0 F1EE10FA 		vmrs	APSR_nzcv, FPSCR
 570 01d4 00F3A381 		bgt	.L32
  46:DSF.cpp       ****         return min;
 571              		.loc 11 46 12 view .LVU161
 572 01d8 B5EEC00A 		vcmpe.f32	s0, #0
 573 01dc F1EE10FA 		vmrs	APSR_nzcv, FPSCR
 574 01e0 00F1A081 		bmi	.L33
  49:DSF.cpp       ****     }
 575              		.loc 11 49 9 view .LVU162
 576              	.LBE262:
 577              	.LBE261:
 578              		.loc 11 103 78 is_stmt 0 view .LVU163
 579 01e4 DFED5A7A 		vldr.32	s15, .L48+48
 580 01e8 60EE277A 		vmul.f32	s15, s0, s15
 581              	.L14:
 582              	.LVL32:
 583              		.loc 11 103 13 view .LVU164
 584 01ec DFF89C91 		ldr	r9, .L48+108
 585              	.LBB264:
 586              	.LBB265:
 587              		.loc 12 389 26 view .LVU165
 588 01f0 B1EE000A 		vmov.f32	s0, #4.0e+0
 589 01f4 D8ED000A 		vldr.32	s1, [r8]
 590              	.LBE265:
 591              	.LBE264:
 592              		.loc 11 103 13 view .LVU166
 593 01f8 C9ED007A 		vstr.32	s15, [r9]
 104:DSF.cpp       ****     imageR1 = RestrictRange(pow(BASE_1, spread) * cutoffSquared, 0.0f, 1.0f) * CUTOFF_RANGE;
 594              		.loc 11 104 5 is_stmt 1 view .LVU167
 595              	.LVL33:
 596              	.LBB267:
 597              	.LBI264:
 388:c:\program files\daisytoolchain\arm-none-eabi\include\c++\10.2.1\cmath ****   { return __builtin_powf(__x, __y); }
 598              		.loc 12 388 3 view .LVU168
 599              	.LBB266:
 600              		.loc 12 389 5 view .LVU169
 601              		.loc 12 389 26 is_stmt 0 view .LVU170
 602 01fc FFF7FEFF 		bl	powf
 603              	.LVL34:
ARM GAS  C:\Users\theri\AppData\Local\Temp\cc3rAykC.s 			page 32


 604              		.loc 12 389 26 view .LVU171
 605              	.LBE266:
 606              	.LBE267:
 607              		.loc 11 104 28 view .LVU172
 608 0200 DAED007A 		vldr.32	s15, [r10]
 609 0204 20EE270A 		vmul.f32	s0, s0, s15
 610              	.LVL35:
 611              	.LBB268:
 612              	.LBI268:
  43:DSF.cpp       ****     if (input > max) {
 613              		.loc 11 43 7 is_stmt 1 view .LVU173
 614              	.LBB269:
  44:DSF.cpp       ****         return max;
 615              		.loc 11 44 5 view .LVU174
 616 0208 F7EE007A 		vmov.f32	s15, #1.0e+0
 617 020c B4EEE70A 		vcmpe.f32	s0, s15
 618 0210 F1EE10FA 		vmrs	APSR_nzcv, FPSCR
 619 0214 00F38081 		bgt	.L34
  46:DSF.cpp       ****         return min;
 620              		.loc 11 46 12 view .LVU175
 621 0218 B5EEC00A 		vcmpe.f32	s0, #0
 622 021c F1EE10FA 		vmrs	APSR_nzcv, FPSCR
 623 0220 00F18681 		bmi	.L35
  49:DSF.cpp       ****     }
 624              		.loc 11 49 9 view .LVU176
 625              	.LBE269:
 626              	.LBE268:
 627              		.loc 11 104 78 is_stmt 0 view .LVU177
 628 0224 DFED4A7A 		vldr.32	s15, .L48+48
 629 0228 60EE277A 		vmul.f32	s15, s0, s15
 630              	.L15:
 631              	.LVL36:
 105:DSF.cpp       ****     imageR2 = RestrictRange(pow(BASE_2, -spread) * cutoffSquared, 0.0f, 1.0f) * CUTOFF_RANGE;
 632              		.loc 11 105 32 view .LVU178
 633 022c D8ED000A 		vldr.32	s1, [r8]
 104:DSF.cpp       ****     imageR2 = RestrictRange(pow(BASE_2, -spread) * cutoffSquared, 0.0f, 1.0f) * CUTOFF_RANGE;
 634              		.loc 11 104 13 view .LVU179
 635 0230 DFF85C81 		ldr	r8, .L48+112
 636              	.LBB272:
 637              	.LBB273:
 638              		.loc 12 389 26 view .LVU180
 639 0234 F1EE600A 		vneg.f32	s1, s1
 640 0238 9FED460A 		vldr.32	s0, .L48+52
 641              	.LBE273:
 642              	.LBE272:
 104:DSF.cpp       ****     imageR2 = RestrictRange(pow(BASE_2, -spread) * cutoffSquared, 0.0f, 1.0f) * CUTOFF_RANGE;
 643              		.loc 11 104 13 view .LVU181
 644 023c C8ED007A 		vstr.32	s15, [r8]
 645              		.loc 11 105 5 is_stmt 1 view .LVU182
 646              	.LVL37:
 647              	.LBB275:
 648              	.LBI272:
 388:c:\program files\daisytoolchain\arm-none-eabi\include\c++\10.2.1\cmath ****   { return __builtin_powf(__x, __y); }
 649              		.loc 12 388 3 view .LVU183
 650              	.LBB274:
 651              		.loc 12 389 5 view .LVU184
 652              		.loc 12 389 26 is_stmt 0 view .LVU185
ARM GAS  C:\Users\theri\AppData\Local\Temp\cc3rAykC.s 			page 33


 653 0240 FFF7FEFF 		bl	powf
 654              	.LVL38:
 655              		.loc 12 389 26 view .LVU186
 656              	.LBE274:
 657              	.LBE275:
 658              		.loc 11 105 28 view .LVU187
 659 0244 DAED007A 		vldr.32	s15, [r10]
 660 0248 20EE270A 		vmul.f32	s0, s0, s15
 661              	.LVL39:
 662              	.LBB276:
 663              	.LBI276:
  43:DSF.cpp       ****     if (input > max) {
 664              		.loc 11 43 7 is_stmt 1 view .LVU188
 665              	.LBB277:
  44:DSF.cpp       ****         return max;
 666              		.loc 11 44 5 view .LVU189
 667 024c F7EE007A 		vmov.f32	s15, #1.0e+0
 668 0250 B4EEE70A 		vcmpe.f32	s0, s15
 669 0254 F1EE10FA 		vmrs	APSR_nzcv, FPSCR
 670 0258 00F35581 		bgt	.L36
  46:DSF.cpp       ****         return min;
 671              		.loc 11 46 12 view .LVU190
 672 025c B5EEC00A 		vcmpe.f32	s0, #0
 673 0260 F1EE10FA 		vmrs	APSR_nzcv, FPSCR
 674 0264 00F16181 		bmi	.L37
  49:DSF.cpp       ****     }
 675              		.loc 11 49 9 view .LVU191
 676              	.LBE277:
 677              	.LBE276:
 678              		.loc 11 105 79 is_stmt 0 view .LVU192
 679 0268 9FED397A 		vldr.32	s14, .L48+48
 680 026c 20EE077A 		vmul.f32	s14, s0, s14
 681              	.L16:
 682              	.LVL40:
 106:DSF.cpp       **** 
 107:DSF.cpp       ****     hpCutoff = hpCutoff * hpCutoff * CUTOFF_RANGE;
 683              		.loc 11 107 25 view .LVU193
 684 0270 D4ED007A 		vldr.32	s15, [r4]
 685              		.loc 11 107 36 view .LVU194
 686 0274 DFED366A 		vldr.32	s13, .L48+48
 687              		.loc 11 107 25 view .LVU195
 688 0278 67EEA77A 		vmul.f32	s15, s15, s15
 108:DSF.cpp       **** 
 109:DSF.cpp       ****     // SET FILTER VALUES
 110:DSF.cpp       ****     svfL1.SetFreq(imageL1);
 689              		.loc 11 110 18 view .LVU196
 690 027c 9BED000A 		vldr.32	s0, [fp]
 105:DSF.cpp       **** 
 691              		.loc 11 105 13 view .LVU197
 692 0280 DFF810B1 		ldr	fp, .L48+116
 693              		.loc 11 110 18 view .LVU198
 694 0284 3448     		ldr	r0, .L48+56
 107:DSF.cpp       **** 
 695              		.loc 11 107 36 view .LVU199
 696 0286 67EEA67A 		vmul.f32	s15, s15, s13
 105:DSF.cpp       **** 
 697              		.loc 11 105 13 view .LVU200
ARM GAS  C:\Users\theri\AppData\Local\Temp\cc3rAykC.s 			page 34


 698 028a 8BED007A 		vstr.32	s14, [fp]
 107:DSF.cpp       **** 
 699              		.loc 11 107 5 is_stmt 1 view .LVU201
 700              		.loc 11 110 5 view .LVU202
 107:DSF.cpp       **** 
 701              		.loc 11 107 14 is_stmt 0 view .LVU203
 702 028e C4ED007A 		vstr.32	s15, [r4]
 703              		.loc 11 110 18 view .LVU204
 704 0292 FFF7FEFF 		bl	_ZN7daisysp3Svf7SetFreqEf
 705              	.LVL41:
 111:DSF.cpp       ****     svfL2.SetFreq(imageL2);
 706              		.loc 11 111 5 is_stmt 1 view .LVU205
 707              		.loc 11 111 18 is_stmt 0 view .LVU206
 708 0296 99ED000A 		vldr.32	s0, [r9]
 709 029a 3048     		ldr	r0, .L48+60
 710 029c FFF7FEFF 		bl	_ZN7daisysp3Svf7SetFreqEf
 711              	.LVL42:
 112:DSF.cpp       ****     svfR1.SetFreq(imageR1);
 712              		.loc 11 112 5 is_stmt 1 view .LVU207
 713              		.loc 11 112 18 is_stmt 0 view .LVU208
 714 02a0 98ED000A 		vldr.32	s0, [r8]
 715 02a4 2E48     		ldr	r0, .L48+64
 716 02a6 FFF7FEFF 		bl	_ZN7daisysp3Svf7SetFreqEf
 717              	.LVL43:
 113:DSF.cpp       ****     svfR2.SetFreq(imageR2);
 718              		.loc 11 113 5 is_stmt 1 view .LVU209
 719              		.loc 11 113 18 is_stmt 0 view .LVU210
 720 02aa 9BED000A 		vldr.32	s0, [fp]
 721 02ae 2D48     		ldr	r0, .L48+68
 722 02b0 FFF7FEFF 		bl	_ZN7daisysp3Svf7SetFreqEf
 723              	.LVL44:
 114:DSF.cpp       ****     
 115:DSF.cpp       ****     svfL1.SetRes(resonance);
 724              		.loc 11 115 5 is_stmt 1 view .LVU211
 725              		.loc 11 115 17 is_stmt 0 view .LVU212
 726 02b4 95ED000A 		vldr.32	s0, [r5]
 727 02b8 2748     		ldr	r0, .L48+56
 728 02ba FFF7FEFF 		bl	_ZN7daisysp3Svf6SetResEf
 729              	.LVL45:
 116:DSF.cpp       ****     svfL2.SetRes(resonance);
 730              		.loc 11 116 5 is_stmt 1 view .LVU213
 731              		.loc 11 116 17 is_stmt 0 view .LVU214
 732 02be 95ED000A 		vldr.32	s0, [r5]
 733 02c2 2648     		ldr	r0, .L48+60
 734 02c4 FFF7FEFF 		bl	_ZN7daisysp3Svf6SetResEf
 735              	.LVL46:
 117:DSF.cpp       ****     svfR1.SetRes(resonance);
 736              		.loc 11 117 5 is_stmt 1 view .LVU215
 737              		.loc 11 117 17 is_stmt 0 view .LVU216
 738 02c8 95ED000A 		vldr.32	s0, [r5]
 739 02cc 2448     		ldr	r0, .L48+64
 740 02ce FFF7FEFF 		bl	_ZN7daisysp3Svf6SetResEf
 741              	.LVL47:
 118:DSF.cpp       ****     svfR2.SetRes(resonance);
 742              		.loc 11 118 5 is_stmt 1 view .LVU217
 743              		.loc 11 118 17 is_stmt 0 view .LVU218
 744 02d2 95ED000A 		vldr.32	s0, [r5]
ARM GAS  C:\Users\theri\AppData\Local\Temp\cc3rAykC.s 			page 35


 745 02d6 2348     		ldr	r0, .L48+68
 746 02d8 FFF7FEFF 		bl	_ZN7daisysp3Svf6SetResEf
 747              	.LVL48:
 119:DSF.cpp       **** 
 120:DSF.cpp       ****     highPassL.SetFreq(hpCutoff);
 748              		.loc 11 120 5 is_stmt 1 view .LVU219
 749              		.loc 11 120 22 is_stmt 0 view .LVU220
 750 02dc 94ED000A 		vldr.32	s0, [r4]
 751 02e0 2148     		ldr	r0, .L48+72
 752 02e2 FFF7FEFF 		bl	_ZN7daisysp3Svf7SetFreqEf
 753              	.LVL49:
 121:DSF.cpp       ****     highPassL.SetRes(0.0f);
 754              		.loc 11 121 5 is_stmt 1 view .LVU221
 755              		.loc 11 121 21 is_stmt 0 view .LVU222
 756 02e6 9FED160A 		vldr.32	s0, .L48+32
 757 02ea 1F48     		ldr	r0, .L48+72
 758 02ec FFF7FEFF 		bl	_ZN7daisysp3Svf6SetResEf
 759              	.LVL50:
 122:DSF.cpp       ****     highPassR.SetFreq(hpCutoff);
 760              		.loc 11 122 5 is_stmt 1 view .LVU223
 761              		.loc 11 122 22 is_stmt 0 view .LVU224
 762 02f0 94ED000A 		vldr.32	s0, [r4]
 763 02f4 1D48     		ldr	r0, .L48+76
 764 02f6 FFF7FEFF 		bl	_ZN7daisysp3Svf7SetFreqEf
 765              	.LVL51:
 123:DSF.cpp       ****     highPassR.SetRes(0.0f);
 766              		.loc 11 123 5 is_stmt 1 view .LVU225
 767              		.loc 11 123 21 is_stmt 0 view .LVU226
 768 02fa 9FED110A 		vldr.32	s0, .L48+32
 769 02fe 1B48     		ldr	r0, .L48+76
 770 0300 FFF7FEFF 		bl	_ZN7daisysp3Svf6SetResEf
 771              	.LVL52:
 124:DSF.cpp       **** 
 125:DSF.cpp       ****     // PROCESS SAMPLES
 126:DSF.cpp       ****     for(size_t i = 0; i < size; i++)
 772              		.loc 11 126 5 is_stmt 1 view .LVU227
 773              	.LBB280:
 774              		.loc 11 126 25 view .LVU228
 775 0304 009B     		ldr	r3, [sp]
 776 0306 002B     		cmp	r3, #0
 777 0308 00F0E780 		beq	.L6
 778              		.loc 11 126 16 is_stmt 0 view .LVU229
 779 030c 0024     		movs	r4, #0
 780 030e DFF85890 		ldr	r9, .L48+72
 781 0312 DFF85880 		ldr	r8, .L48+76
 782 0316 DFF848A0 		ldr	r10, .L48+64
 783 031a DFF848B0 		ldr	fp, .L48+68
 784 031e 61E0     		b	.L17
 785              	.L49:
 786              		.align	2
 787              	.L48:
 788 0320 00000000 		.word	.LANCHOR1
 789 0324 00000000 		.word	.LANCHOR0
 790 0328 00000000 		.word	.LANCHOR2
 791 032c 67666666 		.word	1717986919
 792 0330 00000000 		.word	.LANCHOR5
 793 0334 00000000 		.word	.LANCHOR3
ARM GAS  C:\Users\theri\AppData\Local\Temp\cc3rAykC.s 			page 36


 794 0338 00000000 		.word	.LANCHOR9
 795 033c 00000000 		.word	.LANCHOR10
 796 0340 00000000 		.word	0
 797 0344 00000000 		.word	.LANCHOR11
 798 0348 00000000 		.word	.LANCHOR12
 799 034c 00000000 		.word	.LANCHOR15
 800 0350 00409C46 		.word	1184645120
 801 0354 9A99D93F 		.word	1071225242
 802 0358 00000000 		.word	.LANCHOR20
 803 035c 00000000 		.word	.LANCHOR21
 804 0360 00000000 		.word	.LANCHOR22
 805 0364 00000000 		.word	.LANCHOR23
 806 0368 00000000 		.word	.LANCHOR24
 807 036c 00000000 		.word	.LANCHOR25
 808 0370 00000000 		.word	.LANCHOR4
 809 0374 00000000 		.word	.LANCHOR6
 810 0378 00000000 		.word	.LANCHOR7
 811 037c 00000000 		.word	.LANCHOR8
 812 0380 00000000 		.word	.LANCHOR13
 813 0384 00000000 		.word	.LANCHOR14
 814 0388 00000000 		.word	.LANCHOR16
 815 038c 00000000 		.word	.LANCHOR17
 816 0390 00000000 		.word	.LANCHOR18
 817 0394 00000000 		.word	.LANCHOR19
 818              	.LVL53:
 819              	.L18:
 127:DSF.cpp       ****     {
 128:DSF.cpp       ****         led.Update();
 129:DSF.cpp       **** 
 130:DSF.cpp       ****         highPassL.Process(in[0][i]);
 131:DSF.cpp       ****         highPassR.Process(in[1][i]);
 132:DSF.cpp       **** 
 133:DSF.cpp       ****         svfL1.Process(highPassL.High());
 134:DSF.cpp       ****         svfL2.Process(highPassL.High());
 135:DSF.cpp       ****         svfR1.Process(highPassR.High());
 136:DSF.cpp       ****         svfR2.Process(highPassR.High());
 137:DSF.cpp       **** 
 138:DSF.cpp       ****         // COMBINE FILTERS
 139:DSF.cpp       ****         if (buttonValue == 1) {
 140:DSF.cpp       ****             out[0][i] = (svfL1.Band() + svfL2.Band()) * VOLUME_NORMAL; 
 141:DSF.cpp       ****             out[1][i] = (svfR1.Band() + svfR2.Band()) * VOLUME_NORMAL; 
 142:DSF.cpp       ****         } else if (buttonValue == 2) {
 820              		.loc 11 142 16 is_stmt 1 view .LVU230
 821 0398 0228     		cmp	r0, #2
 822 039a 78D0     		beq	.L45
 143:DSF.cpp       ****             out[0][i] = (svfL1.High() + svfL2.High()) * VOLUME_NORMAL; 
 144:DSF.cpp       ****             out[1][i] = (svfR1.High() + svfR2.High()) * VOLUME_NORMAL; 
 145:DSF.cpp       ****         } else if (buttonValue == 3) {
 823              		.loc 11 145 16 view .LVU231
 824 039c 0328     		cmp	r0, #3
 825 039e 00F08980 		beq	.L46
 146:DSF.cpp       ****             out[0][i] = (svfL1.Notch() + svfL2.Notch()) * VOLUME_NORMAL; 
 147:DSF.cpp       ****             out[1][i] = (svfR1.Notch() + svfR2.Notch()) * VOLUME_NORMAL; 
 148:DSF.cpp       ****         } else if (buttonValue == 4) {
 826              		.loc 11 148 16 view .LVU232
 827 03a2 0428     		cmp	r0, #4
 828 03a4 00F09C80 		beq	.L47
ARM GAS  C:\Users\theri\AppData\Local\Temp\cc3rAykC.s 			page 37


 149:DSF.cpp       ****             out[0][i] = (svfL1.Peak() + svfL2.Peak()) * VOLUME_NORMAL; 
 150:DSF.cpp       ****             out[1][i] = (svfR1.Peak() + svfR2.Peak()) * VOLUME_NORMAL; 
 151:DSF.cpp       ****         } else {
 152:DSF.cpp       ****             out[0][i] = (svfL1.Low() + svfL2.Low()) * VOLUME_NORMAL; 
 829              		.loc 11 152 13 view .LVU233
 830              	.LVL54:
 831              	.LBB281:
 832              	.LBI281:
  23:../../DaisySP//Source/Filters/svf.h ****     /** Initializes the filter
  24:../../DaisySP//Source/Filters/svf.h ****         float sample_rate - sample rate of the audio engine being run, and the frequency that the P
  25:../../DaisySP//Source/Filters/svf.h ****     */
  26:../../DaisySP//Source/Filters/svf.h ****     void Init(float sample_rate);
  27:../../DaisySP//Source/Filters/svf.h **** 
  28:../../DaisySP//Source/Filters/svf.h **** 
  29:../../DaisySP//Source/Filters/svf.h ****     /** 
  30:../../DaisySP//Source/Filters/svf.h ****         Process the input signal, updating all of the outputs.
  31:../../DaisySP//Source/Filters/svf.h ****     */
  32:../../DaisySP//Source/Filters/svf.h ****     void Process(float in);
  33:../../DaisySP//Source/Filters/svf.h **** 
  34:../../DaisySP//Source/Filters/svf.h **** 
  35:../../DaisySP//Source/Filters/svf.h ****     /** sets the frequency of the cutoff frequency. 
  36:../../DaisySP//Source/Filters/svf.h ****         f must be between 0.0 and sample_rate / 3
  37:../../DaisySP//Source/Filters/svf.h ****     */
  38:../../DaisySP//Source/Filters/svf.h ****     void SetFreq(float f);
  39:../../DaisySP//Source/Filters/svf.h **** 
  40:../../DaisySP//Source/Filters/svf.h ****     /** sets the resonance of the filter.
  41:../../DaisySP//Source/Filters/svf.h ****         Must be between 0.0 and 1.0 to ensure stability.
  42:../../DaisySP//Source/Filters/svf.h ****     */
  43:../../DaisySP//Source/Filters/svf.h ****     void SetRes(float r);
  44:../../DaisySP//Source/Filters/svf.h **** 
  45:../../DaisySP//Source/Filters/svf.h ****     /** sets the drive of the filter 
  46:../../DaisySP//Source/Filters/svf.h ****         affects the response of the resonance of the filter
  47:../../DaisySP//Source/Filters/svf.h ****     */
  48:../../DaisySP//Source/Filters/svf.h ****     void SetDrive(float d);
  49:../../DaisySP//Source/Filters/svf.h ****     /** lowpass output
  50:../../DaisySP//Source/Filters/svf.h ****         \return low pass output of the filter
  51:../../DaisySP//Source/Filters/svf.h ****     */
  52:../../DaisySP//Source/Filters/svf.h ****     inline float Low() { return out_low_; }
 833              		.loc 10 52 18 view .LVU234
 834              	.LBB282:
 835              		.loc 10 52 26 view .LVU235
 836              		.loc 10 52 26 is_stmt 0 view .LVU236
 837              	.LBE282:
 838              	.LBE281:
 839              	.LBB283:
 840              	.LBI283:
 841              		.loc 10 52 18 is_stmt 1 view .LVU237
 842              	.LBB284:
 843              		.loc 10 52 26 view .LVU238
 844              		.loc 10 52 26 is_stmt 0 view .LVU239
 845              	.LBE284:
 846              	.LBE283:
 847              		.loc 11 152 38 view .LVU240
 848 03a8 D1ED0C7A 		vldr.32	s15, [r1, #48]
 849              		.loc 11 152 53 view .LVU241
 850 03ac F6EE006A 		vmov.f32	s13, #5.0e-1
 851              		.loc 11 152 38 view .LVU242
ARM GAS  C:\Users\theri\AppData\Local\Temp\cc3rAykC.s 			page 38


 852 03b0 92ED0C7A 		vldr.32	s14, [r2, #48]
 853              		.loc 11 152 23 view .LVU243
 854 03b4 3868     		ldr	r0, [r7]
 855              		.loc 11 152 38 view .LVU244
 856 03b6 37EE277A 		vadd.f32	s14, s14, s15
 857              		.loc 11 152 23 view .LVU245
 858 03ba 2844     		add	r0, r0, r5
 859              		.loc 11 152 53 view .LVU246
 860 03bc 27EE267A 		vmul.f32	s14, s14, s13
 861              		.loc 11 152 23 view .LVU247
 862 03c0 80ED007A 		vstr.32	s14, [r0]
 153:DSF.cpp       ****             out[1][i] = (svfR1.Low() + svfR2.Low()) * VOLUME_NORMAL;
 863              		.loc 11 153 13 is_stmt 1 view .LVU248
 864              	.LVL55:
 865              	.LBB285:
 866              	.LBI285:
 867              		.loc 10 52 18 view .LVU249
 868              	.LBB286:
 869              		.loc 10 52 26 view .LVU250
 870              		.loc 10 52 26 is_stmt 0 view .LVU251
 871              	.LBE286:
 872              	.LBE285:
 873              	.LBB287:
 874              	.LBI287:
 875              		.loc 10 52 18 is_stmt 1 view .LVU252
 876              	.LBB288:
 877              		.loc 10 52 26 view .LVU253
 878              		.loc 10 52 26 is_stmt 0 view .LVU254
 879              	.LBE288:
 880              	.LBE287:
 881              		.loc 11 153 38 view .LVU255
 882 03c4 DBED0C7A 		vldr.32	s15, [fp, #48]
 883 03c8 9AED0C7A 		vldr.32	s14, [r10, #48]
 884              	.L41:
 885              		.loc 11 153 38 view .LVU256
 886 03cc 77EE877A 		vadd.f32	s15, s15, s14
 887              		.loc 11 153 23 view .LVU257
 888 03d0 7868     		ldr	r0, [r7, #4]
 126:DSF.cpp       ****     {
 889              		.loc 11 126 5 view .LVU258
 890 03d2 0134     		adds	r4, r4, #1
 891              	.LVL56:
 126:DSF.cpp       ****     {
 892              		.loc 11 126 25 view .LVU259
 893 03d4 009B     		ldr	r3, [sp]
 894              		.loc 11 153 23 view .LVU260
 895 03d6 2844     		add	r0, r0, r5
 896              		.loc 11 153 53 view .LVU261
 897 03d8 67EEA67A 		vmul.f32	s15, s15, s13
 126:DSF.cpp       ****     {
 898              		.loc 11 126 25 view .LVU262
 899 03dc A342     		cmp	r3, r4
 900              		.loc 11 153 23 view .LVU263
 901 03de C0ED007A 		vstr.32	s15, [r0]
 126:DSF.cpp       ****     {
 902              		.loc 11 126 5 is_stmt 1 view .LVU264
 903              	.LVL57:
ARM GAS  C:\Users\theri\AppData\Local\Temp\cc3rAykC.s 			page 39


 126:DSF.cpp       ****     {
 904              		.loc 11 126 25 view .LVU265
 905 03e2 7AD0     		beq	.L6
 906              	.LVL58:
 907              	.L17:
 128:DSF.cpp       **** 
 908              		.loc 11 128 9 view .LVU266
 128:DSF.cpp       **** 
 909              		.loc 11 128 19 is_stmt 0 view .LVU267
 910 03e4 5448     		ldr	r0, .L50
 911 03e6 A500     		lsls	r5, r4, #2
 912 03e8 FFF7FEFF 		bl	_ZN5daisy3Led6UpdateEv
 913              	.LVL59:
 130:DSF.cpp       ****         highPassR.Process(in[1][i]);
 914              		.loc 11 130 9 is_stmt 1 view .LVU268
 130:DSF.cpp       ****         highPassR.Process(in[1][i]);
 915              		.loc 11 130 26 is_stmt 0 view .LVU269
 916 03ec 3068     		ldr	r0, [r6]
 917 03ee 00EB8400 		add	r0, r0, r4, lsl #2
 918 03f2 90ED000A 		vldr.32	s0, [r0]
 919 03f6 5148     		ldr	r0, .L50+4
 920 03f8 FFF7FEFF 		bl	_ZN7daisysp3Svf7ProcessEf
 921              	.LVL60:
 131:DSF.cpp       **** 
 922              		.loc 11 131 9 is_stmt 1 view .LVU270
 131:DSF.cpp       **** 
 923              		.loc 11 131 26 is_stmt 0 view .LVU271
 924 03fc 7068     		ldr	r0, [r6, #4]
 925 03fe 2844     		add	r0, r0, r5
 926 0400 90ED000A 		vldr.32	s0, [r0]
 927 0404 4E48     		ldr	r0, .L50+8
 928 0406 FFF7FEFF 		bl	_ZN7daisysp3Svf7ProcessEf
 929              	.LVL61:
 133:DSF.cpp       ****         svfL2.Process(highPassL.High());
 930              		.loc 11 133 9 is_stmt 1 view .LVU272
 931              	.LBB289:
 932              	.LBI289:
  53:../../DaisySP//Source/Filters/svf.h ****     /** highpass output
  54:../../DaisySP//Source/Filters/svf.h ****         \return high pass output of the filter
  55:../../DaisySP//Source/Filters/svf.h ****     */
  56:../../DaisySP//Source/Filters/svf.h ****     inline float High() { return out_high_; }
 933              		.loc 10 56 18 view .LVU273
 934              	.LBB290:
 935              		.loc 10 56 27 view .LVU274
 936              		.loc 10 56 27 is_stmt 0 view .LVU275
 937              	.LBE290:
 938              	.LBE289:
 133:DSF.cpp       ****         svfL2.Process(highPassL.High());
 939              		.loc 11 133 22 view .LVU276
 940 040a 99ED0D0A 		vldr.32	s0, [r9, #52]
 941 040e 4D48     		ldr	r0, .L50+12
 942 0410 FFF7FEFF 		bl	_ZN7daisysp3Svf7ProcessEf
 943              	.LVL62:
 134:DSF.cpp       ****         svfR1.Process(highPassR.High());
 944              		.loc 11 134 9 is_stmt 1 view .LVU277
 945              	.LBB291:
 946              	.LBI291:
ARM GAS  C:\Users\theri\AppData\Local\Temp\cc3rAykC.s 			page 40


 947              		.loc 10 56 18 view .LVU278
 948              	.LBB292:
 949              		.loc 10 56 27 view .LVU279
 950              		.loc 10 56 27 is_stmt 0 view .LVU280
 951              	.LBE292:
 952              	.LBE291:
 134:DSF.cpp       ****         svfR1.Process(highPassR.High());
 953              		.loc 11 134 22 view .LVU281
 954 0414 99ED0D0A 		vldr.32	s0, [r9, #52]
 955 0418 4B48     		ldr	r0, .L50+16
 956 041a FFF7FEFF 		bl	_ZN7daisysp3Svf7ProcessEf
 957              	.LVL63:
 135:DSF.cpp       ****         svfR2.Process(highPassR.High());
 958              		.loc 11 135 9 is_stmt 1 view .LVU282
 959              	.LBB293:
 960              	.LBI293:
 961              		.loc 10 56 18 view .LVU283
 962              	.LBB294:
 963              		.loc 10 56 27 view .LVU284
 964              		.loc 10 56 27 is_stmt 0 view .LVU285
 965              	.LBE294:
 966              	.LBE293:
 135:DSF.cpp       ****         svfR2.Process(highPassR.High());
 967              		.loc 11 135 22 view .LVU286
 968 041e 98ED0D0A 		vldr.32	s0, [r8, #52]
 969 0422 4A48     		ldr	r0, .L50+20
 970 0424 FFF7FEFF 		bl	_ZN7daisysp3Svf7ProcessEf
 971              	.LVL64:
 136:DSF.cpp       **** 
 972              		.loc 11 136 9 is_stmt 1 view .LVU287
 973              	.LBB295:
 974              	.LBI295:
 975              		.loc 10 56 18 view .LVU288
 976              	.LBB296:
 977              		.loc 10 56 27 view .LVU289
 978              		.loc 10 56 27 is_stmt 0 view .LVU290
 979              	.LBE296:
 980              	.LBE295:
 136:DSF.cpp       **** 
 981              		.loc 11 136 22 view .LVU291
 982 0428 4948     		ldr	r0, .L50+24
 983 042a 98ED0D0A 		vldr.32	s0, [r8, #52]
 984 042e FFF7FEFF 		bl	_ZN7daisysp3Svf7ProcessEf
 985              	.LVL65:
 139:DSF.cpp       ****             out[0][i] = (svfL1.Band() + svfL2.Band()) * VOLUME_NORMAL; 
 986              		.loc 11 139 9 is_stmt 1 view .LVU292
 139:DSF.cpp       ****             out[0][i] = (svfL1.Band() + svfL2.Band()) * VOLUME_NORMAL; 
 987              		.loc 11 139 25 is_stmt 0 view .LVU293
 988 0432 019B     		ldr	r3, [sp, #4]
 139:DSF.cpp       ****             out[0][i] = (svfL1.Band() + svfL2.Band()) * VOLUME_NORMAL; 
 989              		.loc 11 139 9 view .LVU294
 990 0434 4349     		ldr	r1, .L50+12
 139:DSF.cpp       ****             out[0][i] = (svfL1.Band() + svfL2.Band()) * VOLUME_NORMAL; 
 991              		.loc 11 139 25 view .LVU295
 992 0436 1868     		ldr	r0, [r3]
 139:DSF.cpp       ****             out[0][i] = (svfL1.Band() + svfL2.Band()) * VOLUME_NORMAL; 
 993              		.loc 11 139 9 view .LVU296
ARM GAS  C:\Users\theri\AppData\Local\Temp\cc3rAykC.s 			page 41


 994 0438 434A     		ldr	r2, .L50+16
 995 043a 0128     		cmp	r0, #1
 996 043c ACD1     		bne	.L18
 140:DSF.cpp       ****             out[1][i] = (svfR1.Band() + svfR2.Band()) * VOLUME_NORMAL; 
 997              		.loc 11 140 13 is_stmt 1 view .LVU297
 998              	.LVL66:
 999              	.LBB297:
 1000              	.LBI297:
  57:../../DaisySP//Source/Filters/svf.h ****     /** bandpass output
  58:../../DaisySP//Source/Filters/svf.h ****         \return band pass output of the filter
  59:../../DaisySP//Source/Filters/svf.h ****     */
  60:../../DaisySP//Source/Filters/svf.h ****     inline float Band() { return out_band_; }
 1001              		.loc 10 60 18 view .LVU298
 1002              	.LBB298:
 1003              		.loc 10 60 27 view .LVU299
 1004              		.loc 10 60 27 is_stmt 0 view .LVU300
 1005              	.LBE298:
 1006              	.LBE297:
 1007              	.LBB299:
 1008              	.LBI299:
 1009              		.loc 10 60 18 is_stmt 1 view .LVU301
 1010              	.LBB300:
 1011              		.loc 10 60 27 view .LVU302
 1012              		.loc 10 60 27 is_stmt 0 view .LVU303
 1013              	.LBE300:
 1014              	.LBE299:
 140:DSF.cpp       ****             out[1][i] = (svfR1.Band() + svfR2.Band()) * VOLUME_NORMAL; 
 1015              		.loc 11 140 39 view .LVU304
 1016 043e D2ED0E7A 		vldr.32	s15, [r2, #56]
 140:DSF.cpp       ****             out[1][i] = (svfR1.Band() + svfR2.Band()) * VOLUME_NORMAL; 
 1017              		.loc 11 140 55 view .LVU305
 1018 0442 F6EE006A 		vmov.f32	s13, #5.0e-1
 140:DSF.cpp       ****             out[1][i] = (svfR1.Band() + svfR2.Band()) * VOLUME_NORMAL; 
 1019              		.loc 11 140 39 view .LVU306
 1020 0446 91ED0E7A 		vldr.32	s14, [r1, #56]
 140:DSF.cpp       ****             out[1][i] = (svfR1.Band() + svfR2.Band()) * VOLUME_NORMAL; 
 1021              		.loc 11 140 23 view .LVU307
 1022 044a 3868     		ldr	r0, [r7]
 140:DSF.cpp       ****             out[1][i] = (svfR1.Band() + svfR2.Band()) * VOLUME_NORMAL; 
 1023              		.loc 11 140 39 view .LVU308
 1024 044c 37EE277A 		vadd.f32	s14, s14, s15
 140:DSF.cpp       ****             out[1][i] = (svfR1.Band() + svfR2.Band()) * VOLUME_NORMAL; 
 1025              		.loc 11 140 23 view .LVU309
 1026 0450 2844     		add	r0, r0, r5
 140:DSF.cpp       ****             out[1][i] = (svfR1.Band() + svfR2.Band()) * VOLUME_NORMAL; 
 1027              		.loc 11 140 55 view .LVU310
 1028 0452 27EE267A 		vmul.f32	s14, s14, s13
 140:DSF.cpp       ****             out[1][i] = (svfR1.Band() + svfR2.Band()) * VOLUME_NORMAL; 
 1029              		.loc 11 140 23 view .LVU311
 1030 0456 80ED007A 		vstr.32	s14, [r0]
 141:DSF.cpp       ****         } else if (buttonValue == 2) {
 1031              		.loc 11 141 13 is_stmt 1 view .LVU312
 1032              	.LVL67:
 1033              	.LBB301:
 1034              	.LBI301:
 1035              		.loc 10 60 18 view .LVU313
 1036              	.LBB302:
ARM GAS  C:\Users\theri\AppData\Local\Temp\cc3rAykC.s 			page 42


 1037              		.loc 10 60 27 view .LVU314
 1038              		.loc 10 60 27 is_stmt 0 view .LVU315
 1039              	.LBE302:
 1040              	.LBE301:
 1041              	.LBB303:
 1042              	.LBI303:
 1043              		.loc 10 60 18 is_stmt 1 view .LVU316
 1044              	.LBB304:
 1045              		.loc 10 60 27 view .LVU317
 1046              		.loc 10 60 27 is_stmt 0 view .LVU318
 1047              	.LBE304:
 1048              	.LBE303:
 141:DSF.cpp       ****         } else if (buttonValue == 2) {
 1049              		.loc 11 141 39 view .LVU319
 1050 045a DAED0E7A 		vldr.32	s15, [r10, #56]
 1051 045e 9BED0E7A 		vldr.32	s14, [fp, #56]
 1052 0462 B3E7     		b	.L41
 1053              	.LVL68:
 1054              	.L31:
 141:DSF.cpp       ****         } else if (buttonValue == 2) {
 1055              		.loc 11 141 39 view .LVU320
 1056              	.LBE280:
 1057              	.LBB329:
 1058              	.LBB255:
 1059 0464 DFED3B7A 		vldr.32	s15, .L50+28
 1060 0468 A0E6     		b	.L13
 1061              	.LVL69:
 1062              	.L44:
 141:DSF.cpp       ****         } else if (buttonValue == 2) {
 1063              		.loc 11 141 39 view .LVU321
 1064              	.LBE255:
 1065              	.LBE329:
 1066              	.LBB330:
 1067              	.LBB246:
  49:DSF.cpp       ****     }
 1068              		.loc 11 49 9 is_stmt 1 view .LVU322
 1069              	.LBE246:
 1070              	.LBE330:
  93:DSF.cpp       ****     cutoffSquared = cutoff * cutoff;
 1071              		.loc 11 93 30 is_stmt 0 view .LVU323
 1072 046a B0EE007A 		vmov.f32	s14, #2.0e+0
 1073 046e BFEE006A 		vmov.f32	s12, #-1.0e+0
 1074 0472 A5EE876A 		vfma.f32	s12, s11, s14
 1075              	.LBB331:
 1076              	.LBB247:
  49:DSF.cpp       ****     }
 1077              		.loc 11 49 16 view .LVU324
 1078 0476 6EE6     		b	.L12
 1079              	.LVL70:
 1080              	.L27:
  49:DSF.cpp       ****     }
 1081              		.loc 11 49 16 view .LVU325
 1082              	.LBE247:
 1083              	.LBE331:
 1084              	.LBB332:
 1085              	.LBB240:
  47:DSF.cpp       ****     } else {
ARM GAS  C:\Users\theri\AppData\Local\Temp\cc3rAykC.s 			page 43


 1086              		.loc 11 47 16 view .LVU326
 1087 0478 9FED367A 		vldr.32	s14, .L50+28
 1088              	.LVL71:
  47:DSF.cpp       ****     } else {
 1089              		.loc 11 47 16 view .LVU327
 1090 047c 53E6     		b	.L11
 1091              	.LVL72:
 1092              	.L43:
  47:DSF.cpp       ****     } else {
 1093              		.loc 11 47 16 view .LVU328
 1094              	.LBE240:
 1095              	.LBE332:
 1096              	.LBB333:
 1097              	.LBB234:
  49:DSF.cpp       ****     }
 1098              		.loc 11 49 9 is_stmt 1 view .LVU329
 1099              	.LBE234:
 1100              	.LBE333:
  94:DSF.cpp       **** 
 1101              		.loc 11 94 28 is_stmt 0 view .LVU330
 1102 047e 67EEA76A 		vmul.f32	s13, s15, s15
 1103              	.LBB334:
 1104              	.LBB235:
  49:DSF.cpp       ****     }
 1105              		.loc 11 49 16 view .LVU331
 1106 0482 39E6     		b	.L10
 1107              	.LVL73:
 1108              	.L42:
  49:DSF.cpp       ****     }
 1109              		.loc 11 49 16 view .LVU332
 1110              	.LBE235:
 1111              	.LBE334:
  68:DSF.cpp       ****     }
 1112              		.loc 11 68 9 is_stmt 1 view .LVU333
  68:DSF.cpp       ****     }
 1113              		.loc 11 68 20 is_stmt 0 view .LVU334
 1114 0484 344B     		ldr	r3, .L50+32
 1115 0486 1A68     		ldr	r2, [r3]
 1116 0488 0193     		str	r3, [sp, #4]
 1117 048a 0132     		adds	r2, r2, #1
 1118 048c D1E5     		b	.L8
 1119              	.LVL74:
 1120              	.L45:
 1121              	.LBB335:
 143:DSF.cpp       ****             out[1][i] = (svfR1.High() + svfR2.High()) * VOLUME_NORMAL; 
 1122              		.loc 11 143 13 is_stmt 1 view .LVU335
 1123              	.LBB305:
 1124              	.LBI305:
  56:../../DaisySP//Source/Filters/svf.h ****     /** bandpass output
 1125              		.loc 10 56 18 view .LVU336
 1126              	.LBB306:
  56:../../DaisySP//Source/Filters/svf.h ****     /** bandpass output
 1127              		.loc 10 56 27 view .LVU337
  56:../../DaisySP//Source/Filters/svf.h ****     /** bandpass output
 1128              		.loc 10 56 27 is_stmt 0 view .LVU338
 1129              	.LBE306:
 1130              	.LBE305:
ARM GAS  C:\Users\theri\AppData\Local\Temp\cc3rAykC.s 			page 44


 1131              	.LBB307:
 1132              	.LBI307:
  56:../../DaisySP//Source/Filters/svf.h ****     /** bandpass output
 1133              		.loc 10 56 18 is_stmt 1 view .LVU339
 1134              	.LBB308:
  56:../../DaisySP//Source/Filters/svf.h ****     /** bandpass output
 1135              		.loc 10 56 27 view .LVU340
  56:../../DaisySP//Source/Filters/svf.h ****     /** bandpass output
 1136              		.loc 10 56 27 is_stmt 0 view .LVU341
 1137              	.LBE308:
 1138              	.LBE307:
 143:DSF.cpp       ****             out[1][i] = (svfR1.High() + svfR2.High()) * VOLUME_NORMAL; 
 1139              		.loc 11 143 39 view .LVU342
 1140 048e D2ED0D7A 		vldr.32	s15, [r2, #52]
 143:DSF.cpp       ****             out[1][i] = (svfR1.High() + svfR2.High()) * VOLUME_NORMAL; 
 1141              		.loc 11 143 55 view .LVU343
 1142 0492 F6EE006A 		vmov.f32	s13, #5.0e-1
 143:DSF.cpp       ****             out[1][i] = (svfR1.High() + svfR2.High()) * VOLUME_NORMAL; 
 1143              		.loc 11 143 39 view .LVU344
 1144 0496 91ED0D7A 		vldr.32	s14, [r1, #52]
 143:DSF.cpp       ****             out[1][i] = (svfR1.High() + svfR2.High()) * VOLUME_NORMAL; 
 1145              		.loc 11 143 23 view .LVU345
 1146 049a 3868     		ldr	r0, [r7]
 143:DSF.cpp       ****             out[1][i] = (svfR1.High() + svfR2.High()) * VOLUME_NORMAL; 
 1147              		.loc 11 143 39 view .LVU346
 1148 049c 37EE277A 		vadd.f32	s14, s14, s15
 143:DSF.cpp       ****             out[1][i] = (svfR1.High() + svfR2.High()) * VOLUME_NORMAL; 
 1149              		.loc 11 143 23 view .LVU347
 1150 04a0 2844     		add	r0, r0, r5
 143:DSF.cpp       ****             out[1][i] = (svfR1.High() + svfR2.High()) * VOLUME_NORMAL; 
 1151              		.loc 11 143 55 view .LVU348
 1152 04a2 27EE267A 		vmul.f32	s14, s14, s13
 143:DSF.cpp       ****             out[1][i] = (svfR1.High() + svfR2.High()) * VOLUME_NORMAL; 
 1153              		.loc 11 143 23 view .LVU349
 1154 04a6 80ED007A 		vstr.32	s14, [r0]
 144:DSF.cpp       ****         } else if (buttonValue == 3) {
 1155              		.loc 11 144 13 is_stmt 1 view .LVU350
 1156              	.LVL75:
 1157              	.LBB309:
 1158              	.LBI309:
  56:../../DaisySP//Source/Filters/svf.h ****     /** bandpass output
 1159              		.loc 10 56 18 view .LVU351
 1160              	.LBB310:
  56:../../DaisySP//Source/Filters/svf.h ****     /** bandpass output
 1161              		.loc 10 56 27 view .LVU352
  56:../../DaisySP//Source/Filters/svf.h ****     /** bandpass output
 1162              		.loc 10 56 27 is_stmt 0 view .LVU353
 1163              	.LBE310:
 1164              	.LBE309:
 1165              	.LBB311:
 1166              	.LBI311:
  56:../../DaisySP//Source/Filters/svf.h ****     /** bandpass output
 1167              		.loc 10 56 18 is_stmt 1 view .LVU354
 1168              	.LBB312:
  56:../../DaisySP//Source/Filters/svf.h ****     /** bandpass output
 1169              		.loc 10 56 27 view .LVU355
  56:../../DaisySP//Source/Filters/svf.h ****     /** bandpass output
ARM GAS  C:\Users\theri\AppData\Local\Temp\cc3rAykC.s 			page 45


 1170              		.loc 10 56 27 is_stmt 0 view .LVU356
 1171              	.LBE312:
 1172              	.LBE311:
 144:DSF.cpp       ****         } else if (buttonValue == 3) {
 1173              		.loc 11 144 39 view .LVU357
 1174 04aa DAED0D7A 		vldr.32	s15, [r10, #52]
 1175 04ae 9BED0D7A 		vldr.32	s14, [fp, #52]
 1176 04b2 8BE7     		b	.L41
 1177              	.L46:
 146:DSF.cpp       ****             out[1][i] = (svfR1.Notch() + svfR2.Notch()) * VOLUME_NORMAL; 
 1178              		.loc 11 146 13 is_stmt 1 view .LVU358
 1179              	.LVL76:
 1180              	.LBB313:
 1181              	.LBI313:
  61:../../DaisySP//Source/Filters/svf.h ****     /** notchpass output
  62:../../DaisySP//Source/Filters/svf.h ****         \return notch pass output of the filter
  63:../../DaisySP//Source/Filters/svf.h ****     */
  64:../../DaisySP//Source/Filters/svf.h ****     inline float Notch() { return out_notch_; }
 1182              		.loc 10 64 18 view .LVU359
 1183              	.LBB314:
 1184              		.loc 10 64 28 view .LVU360
 1185              		.loc 10 64 28 is_stmt 0 view .LVU361
 1186              	.LBE314:
 1187              	.LBE313:
 1188              	.LBB315:
 1189              	.LBI315:
 1190              		.loc 10 64 18 is_stmt 1 view .LVU362
 1191              	.LBB316:
 1192              		.loc 10 64 28 view .LVU363
 1193              		.loc 10 64 28 is_stmt 0 view .LVU364
 1194              	.LBE316:
 1195              	.LBE315:
 146:DSF.cpp       ****             out[1][i] = (svfR1.Notch() + svfR2.Notch()) * VOLUME_NORMAL; 
 1196              		.loc 11 146 40 view .LVU365
 1197 04b4 D2ED107A 		vldr.32	s15, [r2, #64]
 146:DSF.cpp       ****             out[1][i] = (svfR1.Notch() + svfR2.Notch()) * VOLUME_NORMAL; 
 1198              		.loc 11 146 57 view .LVU366
 1199 04b8 F6EE006A 		vmov.f32	s13, #5.0e-1
 146:DSF.cpp       ****             out[1][i] = (svfR1.Notch() + svfR2.Notch()) * VOLUME_NORMAL; 
 1200              		.loc 11 146 40 view .LVU367
 1201 04bc 91ED107A 		vldr.32	s14, [r1, #64]
 146:DSF.cpp       ****             out[1][i] = (svfR1.Notch() + svfR2.Notch()) * VOLUME_NORMAL; 
 1202              		.loc 11 146 23 view .LVU368
 1203 04c0 3868     		ldr	r0, [r7]
 146:DSF.cpp       ****             out[1][i] = (svfR1.Notch() + svfR2.Notch()) * VOLUME_NORMAL; 
 1204              		.loc 11 146 40 view .LVU369
 1205 04c2 37EE277A 		vadd.f32	s14, s14, s15
 146:DSF.cpp       ****             out[1][i] = (svfR1.Notch() + svfR2.Notch()) * VOLUME_NORMAL; 
 1206              		.loc 11 146 23 view .LVU370
 1207 04c6 2844     		add	r0, r0, r5
 146:DSF.cpp       ****             out[1][i] = (svfR1.Notch() + svfR2.Notch()) * VOLUME_NORMAL; 
 1208              		.loc 11 146 57 view .LVU371
 1209 04c8 27EE267A 		vmul.f32	s14, s14, s13
 146:DSF.cpp       ****             out[1][i] = (svfR1.Notch() + svfR2.Notch()) * VOLUME_NORMAL; 
 1210              		.loc 11 146 23 view .LVU372
 1211 04cc 80ED007A 		vstr.32	s14, [r0]
 147:DSF.cpp       ****         } else if (buttonValue == 4) {
ARM GAS  C:\Users\theri\AppData\Local\Temp\cc3rAykC.s 			page 46


 1212              		.loc 11 147 13 is_stmt 1 view .LVU373
 1213              	.LVL77:
 1214              	.LBB317:
 1215              	.LBI317:
 1216              		.loc 10 64 18 view .LVU374
 1217              	.LBB318:
 1218              		.loc 10 64 28 view .LVU375
 1219              		.loc 10 64 28 is_stmt 0 view .LVU376
 1220              	.LBE318:
 1221              	.LBE317:
 1222              	.LBB319:
 1223              	.LBI319:
 1224              		.loc 10 64 18 is_stmt 1 view .LVU377
 1225              	.LBB320:
 1226              		.loc 10 64 28 view .LVU378
 1227              		.loc 10 64 28 is_stmt 0 view .LVU379
 1228              	.LBE320:
 1229              	.LBE319:
 147:DSF.cpp       ****         } else if (buttonValue == 4) {
 1230              		.loc 11 147 40 view .LVU380
 1231 04d0 DAED107A 		vldr.32	s15, [r10, #64]
 1232 04d4 9BED107A 		vldr.32	s14, [fp, #64]
 1233 04d8 78E7     		b	.L41
 1234              	.LVL78:
 1235              	.L6:
 147:DSF.cpp       ****         } else if (buttonValue == 4) {
 1236              		.loc 11 147 40 view .LVU381
 1237              	.LBE335:
 154:DSF.cpp       ****         }
 155:DSF.cpp       **** 
 156:DSF.cpp       ****     }
 157:DSF.cpp       **** } // END AUDIO CALLBACK METHOD
 1238              		.loc 11 157 1 view .LVU382
 1239 04da 03B0     		add	sp, sp, #12
 1240              		.cfi_remember_state
 1241              		.cfi_def_cfa_offset 36
 1242              	.LVL79:
 1243              		.loc 11 157 1 view .LVU383
 1244              		@ sp needed
 1245 04dc BDE8F08F 		pop	{r4, r5, r6, r7, r8, r9, r10, fp, pc}
 1246              	.LVL80:
 1247              	.L47:
 1248              		.cfi_restore_state
 1249              	.LBB336:
 149:DSF.cpp       ****             out[1][i] = (svfR1.Peak() + svfR2.Peak()) * VOLUME_NORMAL; 
 1250              		.loc 11 149 13 is_stmt 1 view .LVU384
 1251              	.LBB321:
 1252              	.LBI321:
  65:../../DaisySP//Source/Filters/svf.h ****     /** peak output
  66:../../DaisySP//Source/Filters/svf.h ****         \return peak output of the filter
  67:../../DaisySP//Source/Filters/svf.h ****     */
  68:../../DaisySP//Source/Filters/svf.h ****     inline float Peak() { return out_peak_; }
 1253              		.loc 10 68 18 view .LVU385
 1254              	.LBB322:
 1255              		.loc 10 68 27 view .LVU386
 1256              		.loc 10 68 27 is_stmt 0 view .LVU387
 1257              	.LBE322:
ARM GAS  C:\Users\theri\AppData\Local\Temp\cc3rAykC.s 			page 47


 1258              	.LBE321:
 1259              	.LBB323:
 1260              	.LBI323:
 1261              		.loc 10 68 18 is_stmt 1 view .LVU388
 1262              	.LBB324:
 1263              		.loc 10 68 27 view .LVU389
 1264              		.loc 10 68 27 is_stmt 0 view .LVU390
 1265              	.LBE324:
 1266              	.LBE323:
 149:DSF.cpp       ****             out[1][i] = (svfR1.Peak() + svfR2.Peak()) * VOLUME_NORMAL; 
 1267              		.loc 11 149 39 view .LVU391
 1268 04e0 D1ED0F7A 		vldr.32	s15, [r1, #60]
 149:DSF.cpp       ****             out[1][i] = (svfR1.Peak() + svfR2.Peak()) * VOLUME_NORMAL; 
 1269              		.loc 11 149 55 view .LVU392
 1270 04e4 F6EE006A 		vmov.f32	s13, #5.0e-1
 149:DSF.cpp       ****             out[1][i] = (svfR1.Peak() + svfR2.Peak()) * VOLUME_NORMAL; 
 1271              		.loc 11 149 39 view .LVU393
 1272 04e8 92ED0F7A 		vldr.32	s14, [r2, #60]
 149:DSF.cpp       ****             out[1][i] = (svfR1.Peak() + svfR2.Peak()) * VOLUME_NORMAL; 
 1273              		.loc 11 149 23 view .LVU394
 1274 04ec 3868     		ldr	r0, [r7]
 149:DSF.cpp       ****             out[1][i] = (svfR1.Peak() + svfR2.Peak()) * VOLUME_NORMAL; 
 1275              		.loc 11 149 39 view .LVU395
 1276 04ee 37EE277A 		vadd.f32	s14, s14, s15
 149:DSF.cpp       ****             out[1][i] = (svfR1.Peak() + svfR2.Peak()) * VOLUME_NORMAL; 
 1277              		.loc 11 149 23 view .LVU396
 1278 04f2 2844     		add	r0, r0, r5
 149:DSF.cpp       ****             out[1][i] = (svfR1.Peak() + svfR2.Peak()) * VOLUME_NORMAL; 
 1279              		.loc 11 149 55 view .LVU397
 1280 04f4 27EE267A 		vmul.f32	s14, s14, s13
 149:DSF.cpp       ****             out[1][i] = (svfR1.Peak() + svfR2.Peak()) * VOLUME_NORMAL; 
 1281              		.loc 11 149 23 view .LVU398
 1282 04f8 80ED007A 		vstr.32	s14, [r0]
 150:DSF.cpp       ****         } else {
 1283              		.loc 11 150 13 is_stmt 1 view .LVU399
 1284              	.LVL81:
 1285              	.LBB325:
 1286              	.LBI325:
 1287              		.loc 10 68 18 view .LVU400
 1288              	.LBB326:
 1289              		.loc 10 68 27 view .LVU401
 1290              		.loc 10 68 27 is_stmt 0 view .LVU402
 1291              	.LBE326:
 1292              	.LBE325:
 1293              	.LBB327:
 1294              	.LBI327:
 1295              		.loc 10 68 18 is_stmt 1 view .LVU403
 1296              	.LBB328:
 1297              		.loc 10 68 27 view .LVU404
 1298              		.loc 10 68 27 is_stmt 0 view .LVU405
 1299              	.LBE328:
 1300              	.LBE327:
 150:DSF.cpp       ****         } else {
 1301              		.loc 11 150 39 view .LVU406
 1302 04fc DBED0F7A 		vldr.32	s15, [fp, #60]
 1303 0500 9AED0F7A 		vldr.32	s14, [r10, #60]
 1304 0504 62E7     		b	.L41
ARM GAS  C:\Users\theri\AppData\Local\Temp\cc3rAykC.s 			page 48


 1305              	.LVL82:
 1306              	.L36:
 150:DSF.cpp       ****         } else {
 1307              		.loc 11 150 39 view .LVU407
 1308              	.LBE336:
 1309              	.LBB337:
 1310              	.LBB278:
 1311 0506 9FED157A 		vldr.32	s14, .L50+36
 1312 050a B1E6     		b	.L16
 1313              	.LVL83:
 1314              	.L30:
 150:DSF.cpp       ****         } else {
 1315              		.loc 11 150 39 view .LVU408
 1316              	.LBE278:
 1317              	.LBE337:
 1318              	.LBB338:
 1319              	.LBB256:
 1320 050c DFED137A 		vldr.32	s15, .L50+36
 1321 0510 4CE6     		b	.L13
 1322              	.LVL84:
 1323              	.L26:
 150:DSF.cpp       ****         } else {
 1324              		.loc 11 150 39 view .LVU409
 1325              	.LBE256:
 1326              	.LBE338:
 1327              	.LBB339:
 1328              	.LBB241:
  45:DSF.cpp       ****     } else if (input < min) {
 1329              		.loc 11 45 16 view .LVU410
 1330 0512 B0EE467A 		vmov.f32	s14, s12
 1331              	.LVL85:
  45:DSF.cpp       ****     } else if (input < min) {
 1332              		.loc 11 45 16 view .LVU411
 1333 0516 06E6     		b	.L11
 1334              	.LVL86:
 1335              	.L34:
  45:DSF.cpp       ****     } else if (input < min) {
 1336              		.loc 11 45 16 view .LVU412
 1337              	.LBE241:
 1338              	.LBE339:
 1339              	.LBB340:
 1340              	.LBB270:
 1341 0518 DFED107A 		vldr.32	s15, .L50+36
 1342 051c 86E6     		b	.L15
 1343              	.LVL87:
 1344              	.L32:
  45:DSF.cpp       ****     } else if (input < min) {
 1345              		.loc 11 45 16 view .LVU413
 1346              	.LBE270:
 1347              	.LBE340:
 1348              	.LBB341:
 1349              	.LBB263:
 1350 051e DFED0F7A 		vldr.32	s15, .L50+36
 1351 0522 63E6     		b	.L14
 1352              	.L33:
 1353 0524 DFED0B7A 		vldr.32	s15, .L50+28
 1354 0528 60E6     		b	.L14
ARM GAS  C:\Users\theri\AppData\Local\Temp\cc3rAykC.s 			page 49


 1355              	.LVL88:
 1356              	.L37:
  45:DSF.cpp       ****     } else if (input < min) {
 1357              		.loc 11 45 16 view .LVU414
 1358              	.LBE263:
 1359              	.LBE341:
 1360              	.LBB342:
 1361              	.LBB279:
 1362 052a 9FED0A7A 		vldr.32	s14, .L50+28
 1363 052e 9FE6     		b	.L16
 1364              	.LVL89:
 1365              	.L35:
  45:DSF.cpp       ****     } else if (input < min) {
 1366              		.loc 11 45 16 view .LVU415
 1367              	.LBE279:
 1368              	.LBE342:
 1369              	.LBB343:
 1370              	.LBB271:
 1371 0530 DFED087A 		vldr.32	s15, .L50+28
 1372 0534 7AE6     		b	.L15
 1373              	.L51:
 1374 0536 00BF     		.align	2
 1375              	.L50:
 1376 0538 00000000 		.word	.LANCHOR15
 1377 053c 00000000 		.word	.LANCHOR24
 1378 0540 00000000 		.word	.LANCHOR25
 1379 0544 00000000 		.word	.LANCHOR20
 1380 0548 00000000 		.word	.LANCHOR21
 1381 054c 00000000 		.word	.LANCHOR22
 1382 0550 00000000 		.word	.LANCHOR23
 1383 0554 00000000 		.word	0
 1384 0558 00000000 		.word	.LANCHOR2
 1385 055c 00409C46 		.word	1184645120
 1386              	.LBE271:
 1387              	.LBE343:
 1388              		.cfi_endproc
 1389              	.LFE4793:
 1391              		.section	.text._Z13RestrictRangefff,"ax",%progbits
 1392              		.align	1
 1393              		.p2align 2,,3
 1394              		.global	_Z13RestrictRangefff
 1395              		.syntax unified
 1396              		.thumb
 1397              		.thumb_func
 1398              		.fpu fpv5-d16
 1400              	_Z13RestrictRangefff:
 1401              	.LVL90:
 1402              	.LFB4792:
  43:DSF.cpp       ****     if (input > max) {
 1403              		.loc 11 43 56 is_stmt 1 view -0
 1404              		.cfi_startproc
 1405              		@ args = 0, pretend = 0, frame = 0
 1406              		@ frame_needed = 0, uses_anonymous_args = 0
 1407              		@ link register save eliminated.
  44:DSF.cpp       ****         return max;
 1408              		.loc 11 44 5 view .LVU417
 1409 0000 B4EEC10A 		vcmpe.f32	s0, s2
ARM GAS  C:\Users\theri\AppData\Local\Temp\cc3rAykC.s 			page 50


 1410 0004 F1EE10FA 		vmrs	APSR_nzcv, FPSCR
 1411 0008 07DC     		bgt	.L54
  46:DSF.cpp       ****         return min;
 1412              		.loc 11 46 12 view .LVU418
  49:DSF.cpp       ****     }
 1413              		.loc 11 49 16 is_stmt 0 view .LVU419
 1414 000a B4EEE00A 		vcmpe.f32	s0, s1
 1415 000e F1EE10FA 		vmrs	APSR_nzcv, FPSCR
 1416 0012 48BF     		it	mi
 1417 0014 B0EE600A 		vmovmi.f32	s0, s1
 1418              	.LVL91:
  49:DSF.cpp       ****     }
 1419              		.loc 11 49 16 view .LVU420
 1420 0018 7047     		bx	lr
 1421              	.LVL92:
 1422              	.L54:
  45:DSF.cpp       ****     } else if (input < min) {
 1423              		.loc 11 45 16 view .LVU421
 1424 001a B0EE410A 		vmov.f32	s0, s2
 1425              	.LVL93:
  51:DSF.cpp       **** 
 1426              		.loc 11 51 1 view .LVU422
 1427 001e 7047     		bx	lr
 1428              		.cfi_endproc
 1429              	.LFE4792:
 1431              		.section	.text.startup.main,"ax",%progbits
 1432              		.align	1
 1433              		.p2align 2,,3
 1434              		.global	main
 1435              		.syntax unified
 1436              		.thumb
 1437              		.thumb_func
 1438              		.fpu fpv5-d16
 1440              	main:
 1441              	.LFB4794:
 158:DSF.cpp       **** 
 159:DSF.cpp       **** 
 160:DSF.cpp       **** // MAIN METHOD
 161:DSF.cpp       **** int main(void)
 162:DSF.cpp       **** {
 1442              		.loc 11 162 1 is_stmt 1 view -0
 1443              		.cfi_startproc
 1444              		@ Volatile: function does not return.
 1445              		@ args = 0, pretend = 0, frame = 0
 1446              		@ frame_needed = 0, uses_anonymous_args = 0
 163:DSF.cpp       ****     /** Initialize the hardware */
 164:DSF.cpp       ****     patch.Init();
 1447              		.loc 11 164 5 view .LVU424
 162:DSF.cpp       ****     /** Initialize the hardware */
 1448              		.loc 11 162 1 is_stmt 0 view .LVU425
 1449 0000 08B5     		push	{r3, lr}
 1450              		.cfi_def_cfa_offset 8
 1451              		.cfi_offset 3, -8
 1452              		.cfi_offset 14, -4
 1453              		.loc 11 164 15 view .LVU426
 1454 0002 1F48     		ldr	r0, .L59
 1455 0004 FFF7FEFF 		bl	_ZN5daisy8patch_sm12DaisyPatchSM4InitEv
ARM GAS  C:\Users\theri\AppData\Local\Temp\cc3rAykC.s 			page 51


 1456              	.LVL94:
 165:DSF.cpp       ****     button.Init(patch.B7);
 1457              		.loc 11 165 5 is_stmt 1 view .LVU427
 1458              		.loc 11 165 16 is_stmt 0 view .LVU428
 1459 0008 1E4B     		ldr	r3, .L59+4
 1460 000a 9FED1F0A 		vldr.32	s0, .L59+8
 1461 000e 1A78     		ldrb	r2, [r3]	@ zero_extendqisi2
 1462 0010 5978     		ldrb	r1, [r3, #1]	@ zero_extendqisi2
 1463 0012 1E48     		ldr	r0, .L59+12
 1464 0014 42EA0121 		orr	r1, r2, r1, lsl #8
 166:DSF.cpp       ****     
 167:DSF.cpp       ****     samplerate = patch.AudioSampleRate();
 1465              		.loc 11 167 16 view .LVU429
 1466 0018 1D4C     		ldr	r4, .L59+16
 165:DSF.cpp       ****     button.Init(patch.B7);
 1467              		.loc 11 165 16 view .LVU430
 1468 001a FFF7FEFF 		bl	_ZN5daisy6Switch4InitE12dsy_gpio_pinf
 1469              	.LVL95:
 1470              		.loc 11 167 5 is_stmt 1 view .LVU431
 1471              		.loc 11 167 39 is_stmt 0 view .LVU432
 1472 001e 1848     		ldr	r0, .L59
 1473 0020 FFF7FEFF 		bl	_ZN5daisy8patch_sm12DaisyPatchSM15AudioSampleRateEv
 1474              	.LVL96:
 168:DSF.cpp       **** 
 169:DSF.cpp       ****     // GPIO pin, bool invert, samplerate
 170:DSF.cpp       ****     led.Init(patch.B8, false, samplerate);
 1475              		.loc 11 170 13 view .LVU433
 1476 0024 1B4B     		ldr	r3, .L59+20
 1477 0026 0022     		movs	r2, #0
 1478 0028 1B48     		ldr	r0, .L59+24
 1479 002a 1978     		ldrb	r1, [r3]	@ zero_extendqisi2
 1480 002c 5B78     		ldrb	r3, [r3, #1]	@ zero_extendqisi2
 167:DSF.cpp       **** 
 1481              		.loc 11 167 16 view .LVU434
 1482 002e 84ED000A 		vstr.32	s0, [r4]
 1483              		.loc 11 170 5 is_stmt 1 view .LVU435
 1484              		.loc 11 170 13 is_stmt 0 view .LVU436
 1485 0032 41EA0321 		orr	r1, r1, r3, lsl #8
 1486 0036 FFF7FEFF 		bl	_ZN5daisy3Led4InitE12dsy_gpio_pinbf
 1487              	.LVL97:
 171:DSF.cpp       **** 
 172:DSF.cpp       ****     svfL1.Init(samplerate);
 1488              		.loc 11 172 5 is_stmt 1 view .LVU437
 1489              		.loc 11 172 15 is_stmt 0 view .LVU438
 1490 003a 94ED000A 		vldr.32	s0, [r4]
 1491 003e 1748     		ldr	r0, .L59+28
 1492 0040 FFF7FEFF 		bl	_ZN7daisysp3Svf4InitEf
 1493              	.LVL98:
 173:DSF.cpp       ****     svfL2.Init(samplerate);
 1494              		.loc 11 173 5 is_stmt 1 view .LVU439
 1495              		.loc 11 173 15 is_stmt 0 view .LVU440
 1496 0044 94ED000A 		vldr.32	s0, [r4]
 1497 0048 1548     		ldr	r0, .L59+32
 1498 004a FFF7FEFF 		bl	_ZN7daisysp3Svf4InitEf
 1499              	.LVL99:
 174:DSF.cpp       ****     svfR1.Init(samplerate);
 1500              		.loc 11 174 5 is_stmt 1 view .LVU441
ARM GAS  C:\Users\theri\AppData\Local\Temp\cc3rAykC.s 			page 52


 1501              		.loc 11 174 15 is_stmt 0 view .LVU442
 1502 004e 94ED000A 		vldr.32	s0, [r4]
 1503 0052 1448     		ldr	r0, .L59+36
 1504 0054 FFF7FEFF 		bl	_ZN7daisysp3Svf4InitEf
 1505              	.LVL100:
 175:DSF.cpp       ****     svfR2.Init(samplerate);
 1506              		.loc 11 175 5 is_stmt 1 view .LVU443
 1507              		.loc 11 175 15 is_stmt 0 view .LVU444
 1508 0058 94ED000A 		vldr.32	s0, [r4]
 1509 005c 1248     		ldr	r0, .L59+40
 1510 005e FFF7FEFF 		bl	_ZN7daisysp3Svf4InitEf
 1511              	.LVL101:
 176:DSF.cpp       **** 
 177:DSF.cpp       ****     highPassL.Init(samplerate);
 1512              		.loc 11 177 5 is_stmt 1 view .LVU445
 1513              		.loc 11 177 19 is_stmt 0 view .LVU446
 1514 0062 94ED000A 		vldr.32	s0, [r4]
 1515 0066 1148     		ldr	r0, .L59+44
 1516 0068 FFF7FEFF 		bl	_ZN7daisysp3Svf4InitEf
 1517              	.LVL102:
 178:DSF.cpp       ****     highPassR.Init(samplerate);
 1518              		.loc 11 178 5 is_stmt 1 view .LVU447
 1519              		.loc 11 178 19 is_stmt 0 view .LVU448
 1520 006c 1048     		ldr	r0, .L59+48
 1521 006e 94ED000A 		vldr.32	s0, [r4]
 1522 0072 FFF7FEFF 		bl	_ZN7daisysp3Svf4InitEf
 1523              	.LVL103:
 179:DSF.cpp       **** 
 180:DSF.cpp       ****     /** Start Processing the audio */
 181:DSF.cpp       ****     patch.StartAudio(AudioCallback);
 1524              		.loc 11 181 5 is_stmt 1 view .LVU449
 1525              		.loc 11 181 21 is_stmt 0 view .LVU450
 1526 0076 0F49     		ldr	r1, .L59+52
 1527 0078 0148     		ldr	r0, .L59
 1528 007a FFF7FEFF 		bl	_ZN5daisy8patch_sm12DaisyPatchSM10StartAudioEPFvPKPKfPPfjE
 1529              	.LVL104:
 1530              	.L57:
 182:DSF.cpp       ****     while(1) {}
 1531              		.loc 11 182 5 is_stmt 1 discriminator 1 view .LVU451
 1532              		.loc 11 182 5 discriminator 1 view .LVU452
 1533              		.loc 11 182 5 discriminator 1 view .LVU453
 1534              		.loc 11 182 5 discriminator 1 view .LVU454
 1535 007e FEE7     		b	.L57
 1536              	.L60:
 1537              		.align	2
 1538              	.L59:
 1539 0080 00000000 		.word	.LANCHOR0
 1540 0084 00000000 		.word	_ZN5daisy8patch_sm12DaisyPatchSM2B7E
 1541 0088 00000000 		.word	0
 1542 008c 00000000 		.word	.LANCHOR1
 1543 0090 00000000 		.word	.LANCHOR26
 1544 0094 00000000 		.word	_ZN5daisy8patch_sm12DaisyPatchSM2B8E
 1545 0098 00000000 		.word	.LANCHOR15
 1546 009c 00000000 		.word	.LANCHOR20
 1547 00a0 00000000 		.word	.LANCHOR21
 1548 00a4 00000000 		.word	.LANCHOR22
 1549 00a8 00000000 		.word	.LANCHOR23
ARM GAS  C:\Users\theri\AppData\Local\Temp\cc3rAykC.s 			page 53


 1550 00ac 00000000 		.word	.LANCHOR24
 1551 00b0 00000000 		.word	.LANCHOR25
 1552 00b4 00000000 		.word	_Z13AudioCallbackPKPKfPPfj
 1553              		.cfi_endproc
 1554              	.LFE4794:
 1556              		.section	.text.startup._GLOBAL__sub_I_patch,"ax",%progbits
 1557              		.align	1
 1558              		.p2align 2,,3
 1559              		.syntax unified
 1560              		.thumb
 1561              		.thumb_func
 1562              		.fpu fpv5-d16
 1564              	_GLOBAL__sub_I_patch:
 1565              	.LFB5354:
 183:DSF.cpp       **** }
 1566              		.loc 11 183 1 view -0
 1567              		.cfi_startproc
 1568              		@ args = 0, pretend = 0, frame = 0
 1569              		@ frame_needed = 0, uses_anonymous_args = 0
 1570              	.LBB388:
 1571              	.LBI388:
 1572              		.loc 11 183 1 view .LVU456
 1573              	.LVL105:
 1574              	.LBB389:
 1575              	.LBB390:
 1576              	.LBI390:
  64:../../libDaisy//src/daisy_patch_sm.h ****         ~DaisyPatchSM() {}
 1577              		.loc 3 64 9 view .LVU457
 1578              	.LBB391:
 1579              	.LBB392:
 1580              	.LBI392:
  77:../../libDaisy//src/sys/system.h ****     ~System() {}
 1581              		.loc 9 77 5 view .LVU458
  77:../../libDaisy//src/sys/system.h ****     ~System() {}
 1582              		.loc 9 77 5 is_stmt 0 view .LVU459
 1583              	.LBE392:
 1584              	.LBB393:
 1585              	.LBI393:
 1586              		.file 13 "../../libDaisy//src/per/qspi.h"
   1:../../libDaisy//src/per/qspi.h **** #ifndef DSY_QSPI
   2:../../libDaisy//src/per/qspi.h **** #define DSY_QSPI /**< Macro */
   3:../../libDaisy//src/per/qspi.h **** 
   4:../../libDaisy//src/per/qspi.h **** #ifndef UNIT_TEST // for unit tests, a dummy implementation
   5:../../libDaisy//src/per/qspi.h **** 
   6:../../libDaisy//src/per/qspi.h **** #include <cstdint>
   7:../../libDaisy//src/per/qspi.h **** #include "daisy_core.h" // Added for dsy_gpio_pin typedef
   8:../../libDaisy//src/per/qspi.h **** 
   9:../../libDaisy//src/per/qspi.h **** #define DSY_QSPI_TEXT       \
  10:../../libDaisy//src/per/qspi.h ****     __attribute__((section( \
  11:../../libDaisy//src/per/qspi.h ****         ".qspiflash_text"))) /**< used for reading memory in memory_mapped mode. */
  12:../../libDaisy//src/per/qspi.h **** #define DSY_QSPI_DATA       \
  13:../../libDaisy//src/per/qspi.h ****     __attribute__((section( \
  14:../../libDaisy//src/per/qspi.h ****         ".qspiflash_data"))) /**< used for reading memory in memory_mapped mode. */
  15:../../libDaisy//src/per/qspi.h **** #define DSY_QSPI_BSS        \
  16:../../libDaisy//src/per/qspi.h ****     __attribute__((section( \
  17:../../libDaisy//src/per/qspi.h ****         ".qspiflash_bss"))) /**< used for reading memory in memory_mapped mode. */
  18:../../libDaisy//src/per/qspi.h **** 
ARM GAS  C:\Users\theri\AppData\Local\Temp\cc3rAykC.s 			page 54


  19:../../libDaisy//src/per/qspi.h **** namespace daisy
  20:../../libDaisy//src/per/qspi.h **** {
  21:../../libDaisy//src/per/qspi.h **** /** @addtogroup serial
  22:../../libDaisy//src/per/qspi.h **** @{
  23:../../libDaisy//src/per/qspi.h **** */
  24:../../libDaisy//src/per/qspi.h **** 
  25:../../libDaisy//src/per/qspi.h **** /** 
  26:../../libDaisy//src/per/qspi.h ****  Driver for QSPI peripheral to interface with external flash memory. \n 
  27:../../libDaisy//src/per/qspi.h ****     Currently supported QSPI Devices: \n 
  28:../../libDaisy//src/per/qspi.h ****     * IS25LP080D
  29:../../libDaisy//src/per/qspi.h **** */
  30:../../libDaisy//src/per/qspi.h **** class QSPIHandle
  31:../../libDaisy//src/per/qspi.h **** {
  32:../../libDaisy//src/per/qspi.h ****   public:
  33:../../libDaisy//src/per/qspi.h ****     enum Result
  34:../../libDaisy//src/per/qspi.h ****     {
  35:../../libDaisy//src/per/qspi.h ****         OK = 0,
  36:../../libDaisy//src/per/qspi.h ****         ERR
  37:../../libDaisy//src/per/qspi.h ****     };
  38:../../libDaisy//src/per/qspi.h **** 
  39:../../libDaisy//src/per/qspi.h ****     /** Indicates the current status of the module. 
  40:../../libDaisy//src/per/qspi.h ****          *  Warnings are indicated by a leading W.
  41:../../libDaisy//src/per/qspi.h ****          *  Errors are indicated by a leading E and cause an immediate exit.
  42:../../libDaisy//src/per/qspi.h ****          * 
  43:../../libDaisy//src/per/qspi.h ****          *  \param GOOD - No errors have been reported.
  44:../../libDaisy//src/per/qspi.h ****          *  \param E_HAL_ERROR - HAL code did not return HAL_OK.
  45:../../libDaisy//src/per/qspi.h ****          *  \param E_SWITCHING_MODES - An error was encountered while switching QSPI peripheral mod
  46:../../libDaisy//src/per/qspi.h ****          *  \param E_INVALID_MODE - QSPI should not be written to while the program is executing fr
  47:../../libDaisy//src/per/qspi.h ****          */
  48:../../libDaisy//src/per/qspi.h ****     enum Status
  49:../../libDaisy//src/per/qspi.h ****     {
  50:../../libDaisy//src/per/qspi.h ****         GOOD = 0,
  51:../../libDaisy//src/per/qspi.h ****         E_HAL_ERROR,
  52:../../libDaisy//src/per/qspi.h ****         E_SWITCHING_MODES,
  53:../../libDaisy//src/per/qspi.h ****         E_INVALID_MODE,
  54:../../libDaisy//src/per/qspi.h ****     };
  55:../../libDaisy//src/per/qspi.h **** 
  56:../../libDaisy//src/per/qspi.h ****     /** Configuration structure for interfacing with QSPI Driver */
  57:../../libDaisy//src/per/qspi.h ****     struct Config
  58:../../libDaisy//src/per/qspi.h ****     {
  59:../../libDaisy//src/per/qspi.h ****         /** Flash Devices supported. (Both of these are more-or-less the same, just different sizes
  60:../../libDaisy//src/per/qspi.h ****         enum Device
  61:../../libDaisy//src/per/qspi.h ****         {
  62:../../libDaisy//src/per/qspi.h ****             IS25LP080D,  /**< & */
  63:../../libDaisy//src/per/qspi.h ****             IS25LP064A,  /**< & */
  64:../../libDaisy//src/per/qspi.h ****             DEVICE_LAST, /**< & */
  65:../../libDaisy//src/per/qspi.h ****         };
  66:../../libDaisy//src/per/qspi.h **** 
  67:../../libDaisy//src/per/qspi.h ****         /** 
  68:../../libDaisy//src/per/qspi.h ****         Modes of operation.
  69:../../libDaisy//src/per/qspi.h ****         Memory Mapped mode: QSPI configured so that the QSPI can be
  70:../../libDaisy//src/per/qspi.h ****         read from starting address 0x90000000. Writing is not
  71:../../libDaisy//src/per/qspi.h ****         possible in this mode. \n 
  72:../../libDaisy//src/per/qspi.h ****         Indirect Polling mode: Device driver enabled. 
  73:../../libDaisy//src/per/qspi.h ****         */
  74:../../libDaisy//src/per/qspi.h ****         enum Mode
  75:../../libDaisy//src/per/qspi.h ****         {
ARM GAS  C:\Users\theri\AppData\Local\Temp\cc3rAykC.s 			page 55


  76:../../libDaisy//src/per/qspi.h ****             MEMORY_MAPPED,    /**< & */
  77:../../libDaisy//src/per/qspi.h ****             INDIRECT_POLLING, /**< & */
  78:../../libDaisy//src/per/qspi.h ****             MODE_LAST,
  79:../../libDaisy//src/per/qspi.h ****         };
  80:../../libDaisy//src/per/qspi.h **** 
  81:../../libDaisy//src/per/qspi.h ****         //SCK,  CE# (active low)
  82:../../libDaisy//src/per/qspi.h ****         struct
  83:../../libDaisy//src/per/qspi.h ****         {
  84:../../libDaisy//src/per/qspi.h ****             dsy_gpio_pin io0; /**< & */
  85:../../libDaisy//src/per/qspi.h ****             dsy_gpio_pin io1; /**< & */
  86:../../libDaisy//src/per/qspi.h ****             dsy_gpio_pin io2; /**< & */
  87:../../libDaisy//src/per/qspi.h ****             dsy_gpio_pin io3; /**< & */
  88:../../libDaisy//src/per/qspi.h ****             dsy_gpio_pin clk; /**< & */
  89:../../libDaisy//src/per/qspi.h ****             dsy_gpio_pin ncs; /**< & */
  90:../../libDaisy//src/per/qspi.h ****         } pin_config;
  91:../../libDaisy//src/per/qspi.h **** 
  92:../../libDaisy//src/per/qspi.h ****         Device device;
  93:../../libDaisy//src/per/qspi.h ****         Mode   mode;
  94:../../libDaisy//src/per/qspi.h ****     };
  95:../../libDaisy//src/per/qspi.h **** 
  96:../../libDaisy//src/per/qspi.h ****     /** 
  97:../../libDaisy//src/per/qspi.h ****         Initializes QSPI peripheral, and Resets, and prepares memory for access.
  98:../../libDaisy//src/per/qspi.h ****         \param config should be populated with the mode, device and pin_config before calling this 
  99:../../libDaisy//src/per/qspi.h ****         \return Result::OK or Result::ERR
 100:../../libDaisy//src/per/qspi.h ****         */
 101:../../libDaisy//src/per/qspi.h ****     Result Init(const Config& config);
 102:../../libDaisy//src/per/qspi.h **** 
 103:../../libDaisy//src/per/qspi.h ****     /** Returns the current config. */
 104:../../libDaisy//src/per/qspi.h ****     const Config& GetConfig() const;
 105:../../libDaisy//src/per/qspi.h **** 
 106:../../libDaisy//src/per/qspi.h ****     // Couldn't this just be called before anything else in init? That
 107:../../libDaisy//src/per/qspi.h ****     // would make manually calling it unnecessary.
 108:../../libDaisy//src/per/qspi.h ****     /** 
 109:../../libDaisy//src/per/qspi.h ****         Deinitializes the peripheral
 110:../../libDaisy//src/per/qspi.h ****         This should be called before reinitializing QSPI in a different mode.
 111:../../libDaisy//src/per/qspi.h ****         \return Result::OK or Result::ERR
 112:../../libDaisy//src/per/qspi.h ****         */
 113:../../libDaisy//src/per/qspi.h ****     Result DeInit();
 114:../../libDaisy//src/per/qspi.h **** 
 115:../../libDaisy//src/per/qspi.h ****     /** 
 116:../../libDaisy//src/per/qspi.h ****         Writes a single page to to the specified address on the QSPI chip.
 117:../../libDaisy//src/per/qspi.h ****         For IS25LP*, page size is 256 bytes.
 118:../../libDaisy//src/per/qspi.h ****         \param address Address to write to
 119:../../libDaisy//src/per/qspi.h ****         \param size Buffer size
 120:../../libDaisy//src/per/qspi.h ****         \param buffer Buffer to write
 121:../../libDaisy//src/per/qspi.h ****         \return Result::OK or Result::ERR
 122:../../libDaisy//src/per/qspi.h ****         */
 123:../../libDaisy//src/per/qspi.h ****     Result WritePage(uint32_t address, uint32_t size, uint8_t* buffer);
 124:../../libDaisy//src/per/qspi.h **** 
 125:../../libDaisy//src/per/qspi.h ****     /** 
 126:../../libDaisy//src/per/qspi.h ****         Writes data in buffer to to the QSPI. Starting at address to address+size 
 127:../../libDaisy//src/per/qspi.h ****         \param address Address to write to
 128:../../libDaisy//src/per/qspi.h ****         \param size Buffer size
 129:../../libDaisy//src/per/qspi.h ****         \param buffer Buffer to write
 130:../../libDaisy//src/per/qspi.h ****         \return Result::OK or Result::ERR
 131:../../libDaisy//src/per/qspi.h ****         */
 132:../../libDaisy//src/per/qspi.h ****     Result Write(uint32_t address, uint32_t size, uint8_t* buffer);
ARM GAS  C:\Users\theri\AppData\Local\Temp\cc3rAykC.s 			page 56


 133:../../libDaisy//src/per/qspi.h **** 
 134:../../libDaisy//src/per/qspi.h ****     /** 
 135:../../libDaisy//src/per/qspi.h ****         Erases the area specified on the chip.
 136:../../libDaisy//src/per/qspi.h ****         Erasures will happen by 4K, 32K or 64K increments.
 137:../../libDaisy//src/per/qspi.h ****         Smallest erase possible is 4kB at a time. (on IS25LP*)
 138:../../libDaisy//src/per/qspi.h ****         \param start_addr Address to begin erasing from
 139:../../libDaisy//src/per/qspi.h ****         \param end_addr  Address to stop erasing at
 140:../../libDaisy//src/per/qspi.h ****         \return Result::OK or Result::ERR
 141:../../libDaisy//src/per/qspi.h ****         */
 142:../../libDaisy//src/per/qspi.h ****     Result Erase(uint32_t start_addr, uint32_t end_addr);
 143:../../libDaisy//src/per/qspi.h **** 
 144:../../libDaisy//src/per/qspi.h ****     /**  
 145:../../libDaisy//src/per/qspi.h ****          Erases a single sector of the chip.  
 146:../../libDaisy//src/per/qspi.h ****         TODO: Document the size of this function. 
 147:../../libDaisy//src/per/qspi.h ****         \param address Address of sector to erase
 148:../../libDaisy//src/per/qspi.h ****         \return Result::OK or Result::ERR
 149:../../libDaisy//src/per/qspi.h ****         */
 150:../../libDaisy//src/per/qspi.h ****     Result EraseSector(uint32_t address);
 151:../../libDaisy//src/per/qspi.h **** 
 152:../../libDaisy//src/per/qspi.h ****     /** Returns the current class status. Useful for debugging.
 153:../../libDaisy//src/per/qspi.h ****      *  \returns Status
 154:../../libDaisy//src/per/qspi.h ****      */
 155:../../libDaisy//src/per/qspi.h ****     Status GetStatus();
 156:../../libDaisy//src/per/qspi.h **** 
 157:../../libDaisy//src/per/qspi.h ****     /** Returns a pointer to the actual memory used 
 158:../../libDaisy//src/per/qspi.h ****      *  The memory at this address is read-only
 159:../../libDaisy//src/per/qspi.h ****      *  to write to it use the Write function.
 160:../../libDaisy//src/per/qspi.h ****      * 
 161:../../libDaisy//src/per/qspi.h ****      *  \param offset returns the pointer starting this 
 162:../../libDaisy//src/per/qspi.h ****      *                many bytes into the memory
 163:../../libDaisy//src/per/qspi.h ****     */
 164:../../libDaisy//src/per/qspi.h ****     void* GetData(uint32_t offset = 0);
 165:../../libDaisy//src/per/qspi.h **** 
 166:../../libDaisy//src/per/qspi.h ****     QSPIHandle() : pimpl_(nullptr) {}
 1587              		.loc 13 166 5 is_stmt 1 view .LVU460
 1588              	.LBE393:
 1589              	.LBE391:
 1590              	.LBE390:
 1591              	.LBE389:
 1592              	.LBE388:
 1593              		.loc 11 183 1 is_stmt 0 view .LVU461
 1594 0000 38B5     		push	{r3, r4, r5, lr}
 1595              		.cfi_def_cfa_offset 16
 1596              		.cfi_offset 3, -16
 1597              		.cfi_offset 4, -12
 1598              		.cfi_offset 5, -8
 1599              		.cfi_offset 14, -4
 1600              	.LBB435:
 1601              	.LBB432:
 1602              	.LBB420:
 1603              	.LBB416:
 1604              	.LBB396:
 1605              	.LBB394:
 1606              	.LBB395:
 1607              		.loc 13 166 34 view .LVU462
 1608 0002 1B48     		ldr	r0, .L63
 1609 0004 0023     		movs	r3, #0
ARM GAS  C:\Users\theri\AppData\Local\Temp\cc3rAykC.s 			page 57


 1610              	.LBE395:
 1611              	.LBE394:
 1612              	.LBE396:
 1613              	.LBE416:
 1614              	.LBE420:
  30:DSF.cpp       **** Switch              button;
 1615              		.loc 11 30 21 view .LVU463
 1616 0006 1B4C     		ldr	r4, .L63+4
 1617              	.LBB421:
 1618              	.LBB417:
 1619              	.LBB397:
 1620              	.LBB398:
 1621              	.LBB399:
 1622              	.LBB400:
 1623              	.LBB401:
 1624              		.file 14 "../../libDaisy//src/per/i2c.h"
   1:../../libDaisy//src/per/i2c.h **** #pragma once
   2:../../libDaisy//src/per/i2c.h **** #include "daisy_core.h"
   3:../../libDaisy//src/per/i2c.h **** 
   4:../../libDaisy//src/per/i2c.h **** namespace daisy
   5:../../libDaisy//src/per/i2c.h **** {
   6:../../libDaisy//src/per/i2c.h **** /** A handle for interacting with an I2C peripheral. This is a dumb
   7:../../libDaisy//src/per/i2c.h ****  *  gateway that internally points to one of the four I2C peripherals
   8:../../libDaisy//src/per/i2c.h ****  *  after it was initialised. It can then be copied and passed around.
   9:../../libDaisy//src/per/i2c.h ****  *  Use an I2CHandle like this:
  10:../../libDaisy//src/per/i2c.h ****  *  
  11:../../libDaisy//src/per/i2c.h ****  *      // setup the configuration
  12:../../libDaisy//src/per/i2c.h ****  *      I2CHandle::Config i2c_conf;
  13:../../libDaisy//src/per/i2c.h ****  *      i2c_conf.periph = I2CHandle::Config::Peripheral::I2C_1;
  14:../../libDaisy//src/per/i2c.h ****  *      i2c_conf.speed  = I2CHandle::Config::Speed::I2C_400KHZ;
  15:../../libDaisy//src/per/i2c.h ****  *      i2c_conf.mode   = I2CHandle::Config::Mode::Master;
  16:../../libDaisy//src/per/i2c.h ****  *      i2c_conf.pin_config.scl  = {DSY_GPIOB, 8};
  17:../../libDaisy//src/per/i2c.h ****  *      i2c_conf.pin_config.sda  = {DSY_GPIOB, 9};
  18:../../libDaisy//src/per/i2c.h ****  *      // initialise the peripheral
  19:../../libDaisy//src/per/i2c.h ****  *      I2CHandle i2c;
  20:../../libDaisy//src/per/i2c.h ****  *      i2c.Init(i2c_conf);
  21:../../libDaisy//src/per/i2c.h ****  *      // now i2c points to the corresponding peripheral and can be used.
  22:../../libDaisy//src/per/i2c.h ****  *      i2c.TransmitBlocking( ... );
  23:../../libDaisy//src/per/i2c.h ****  */
  24:../../libDaisy//src/per/i2c.h **** class I2CHandle
  25:../../libDaisy//src/per/i2c.h **** {
  26:../../libDaisy//src/per/i2c.h ****   public:
  27:../../libDaisy//src/per/i2c.h ****     /** Contains settings for initialising an I2C interface. */
  28:../../libDaisy//src/per/i2c.h ****     struct Config
  29:../../libDaisy//src/per/i2c.h ****     {
  30:../../libDaisy//src/per/i2c.h ****         /** Specifies whether the interface will operate in master or slave mode. */
  31:../../libDaisy//src/per/i2c.h ****         enum class Mode
  32:../../libDaisy//src/per/i2c.h ****         {
  33:../../libDaisy//src/per/i2c.h ****             I2C_MASTER,
  34:../../libDaisy//src/per/i2c.h ****             I2C_SLAVE,
  35:../../libDaisy//src/per/i2c.h ****         };
  36:../../libDaisy//src/per/i2c.h **** 
  37:../../libDaisy//src/per/i2c.h ****         /** Specifices the internal peripheral to use (these are mapped to different pins on the ha
  38:../../libDaisy//src/per/i2c.h ****         enum class Peripheral
  39:../../libDaisy//src/per/i2c.h ****         {
  40:../../libDaisy//src/per/i2c.h ****             I2C_1 = 0, /**< & */
  41:../../libDaisy//src/per/i2c.h ****             I2C_2,     /**< & */
ARM GAS  C:\Users\theri\AppData\Local\Temp\cc3rAykC.s 			page 58


  42:../../libDaisy//src/per/i2c.h ****             I2C_3,     /**< & */
  43:../../libDaisy//src/per/i2c.h ****             I2C_4,     /**< & */
  44:../../libDaisy//src/per/i2c.h ****         };
  45:../../libDaisy//src/per/i2c.h **** 
  46:../../libDaisy//src/per/i2c.h ****         /** Rate at which the clock/data will be sent/received. The device being used will have max
  47:../../libDaisy//src/per/i2c.h ****          *  1MHZ Mode is currently 886kHz
  48:../../libDaisy//src/per/i2c.h ****          */
  49:../../libDaisy//src/per/i2c.h ****         enum class Speed
  50:../../libDaisy//src/per/i2c.h ****         {
  51:../../libDaisy//src/per/i2c.h ****             I2C_100KHZ, /**< & */
  52:../../libDaisy//src/per/i2c.h ****             I2C_400KHZ, /**< & */
  53:../../libDaisy//src/per/i2c.h ****             I2C_1MHZ,   /**< & */
  54:../../libDaisy//src/per/i2c.h ****         };
  55:../../libDaisy//src/per/i2c.h **** 
  56:../../libDaisy//src/per/i2c.h ****         Peripheral periph; /**< & */
  57:../../libDaisy//src/per/i2c.h ****         struct
  58:../../libDaisy//src/per/i2c.h ****         {
  59:../../libDaisy//src/per/i2c.h ****             dsy_gpio_pin scl; /**< & */
  60:../../libDaisy//src/per/i2c.h ****             dsy_gpio_pin sda; /**< & */
  61:../../libDaisy//src/per/i2c.h ****         } pin_config;         /**< & */
  62:../../libDaisy//src/per/i2c.h **** 
  63:../../libDaisy//src/per/i2c.h ****         Speed speed; /**< & */
  64:../../libDaisy//src/per/i2c.h ****         Mode  mode;  /**< & */
  65:../../libDaisy//src/per/i2c.h ****         // 0x10 is chosen as a default to avoid conflicts with reserved addresses
  66:../../libDaisy//src/per/i2c.h ****         uint8_t address = 0x10; /**< & */
  67:../../libDaisy//src/per/i2c.h ****     };
  68:../../libDaisy//src/per/i2c.h **** 
  69:../../libDaisy//src/per/i2c.h ****     /** Return values for I2C functions. */
  70:../../libDaisy//src/per/i2c.h ****     enum class Result
  71:../../libDaisy//src/per/i2c.h ****     {
  72:../../libDaisy//src/per/i2c.h ****         OK, /**< & */
  73:../../libDaisy//src/per/i2c.h ****         ERR /**< & */
  74:../../libDaisy//src/per/i2c.h ****     };
  75:../../libDaisy//src/per/i2c.h **** 
  76:../../libDaisy//src/per/i2c.h ****     enum class Direction
  77:../../libDaisy//src/per/i2c.h ****     {
  78:../../libDaisy//src/per/i2c.h ****         TRANSMIT, /**< & */
  79:../../libDaisy//src/per/i2c.h ****         RECEIVE,  /**< & */
  80:../../libDaisy//src/per/i2c.h ****     };
  81:../../libDaisy//src/per/i2c.h **** 
  82:../../libDaisy//src/per/i2c.h ****     I2CHandle() : pimpl_(nullptr) {}
 1625              		.loc 14 82 33 view .LVU464
 1626 0008 0362     		str	r3, [r0, #32]
 1627              	.LBE401:
 1628              	.LBE400:
 1629              	.LBE399:
 1630              	.LBE398:
 1631              	.LBE397:
 1632              	.LBB404:
 1633              	.LBB405:
 1634              	.LBB406:
 1635              		.file 15 "../../libDaisy//src/per/dac.h"
   1:../../libDaisy//src/per/dac.h **** #pragma once
   2:../../libDaisy//src/per/dac.h **** #ifndef DSY_DAC_H
   3:../../libDaisy//src/per/dac.h **** #define DSY_DAC_H
   4:../../libDaisy//src/per/dac.h **** 
   5:../../libDaisy//src/per/dac.h **** #include "daisy_core.h"
ARM GAS  C:\Users\theri\AppData\Local\Temp\cc3rAykC.s 			page 59


   6:../../libDaisy//src/per/dac.h **** 
   7:../../libDaisy//src/per/dac.h **** namespace daisy
   8:../../libDaisy//src/per/dac.h **** {
   9:../../libDaisy//src/per/dac.h **** /** @brief DAC handle for Built-in DAC Peripheral 
  10:../../libDaisy//src/per/dac.h ****  *  @ingroup per_analog
  11:../../libDaisy//src/per/dac.h ****  ** 
  12:../../libDaisy//src/per/dac.h ****  ** For now only Normal Mode is supported,
  13:../../libDaisy//src/per/dac.h ****  ** Sample and hold mode provides reduced power consumption, but requires a bit more setup.
  14:../../libDaisy//src/per/dac.h ****  **
  15:../../libDaisy//src/per/dac.h ****  ** For now connecting the DAC through other internal peripherals is also not supported.
  16:../../libDaisy//src/per/dac.h ****  **
  17:../../libDaisy//src/per/dac.h ****  ** Since the DAC channels have dedicated pins we don't need to pass in a pin config like with
  18:../../libDaisy//src/per/dac.h ****  ** other modules. However, it is still important to not try to use the DAC pins for anything else.
  19:../../libDaisy//src/per/dac.h ****  ** DAC Channel 1 is on PA4, and DAC Channel 2 is on PA5
  20:../../libDaisy//src/per/dac.h ****  ***/
  21:../../libDaisy//src/per/dac.h **** class DacHandle
  22:../../libDaisy//src/per/dac.h **** {
  23:../../libDaisy//src/per/dac.h ****   public:
  24:../../libDaisy//src/per/dac.h ****     /** Return Values for the DacHandle class */
  25:../../libDaisy//src/per/dac.h ****     enum class Result
  26:../../libDaisy//src/per/dac.h ****     {
  27:../../libDaisy//src/per/dac.h ****         OK,
  28:../../libDaisy//src/per/dac.h ****         ERR,
  29:../../libDaisy//src/per/dac.h ****     };
  30:../../libDaisy//src/per/dac.h **** 
  31:../../libDaisy//src/per/dac.h ****     /** Selects which channel(s) will be configured for use. */
  32:../../libDaisy//src/per/dac.h ****     enum class Channel
  33:../../libDaisy//src/per/dac.h ****     {
  34:../../libDaisy//src/per/dac.h ****         ONE,
  35:../../libDaisy//src/per/dac.h ****         TWO,
  36:../../libDaisy//src/per/dac.h ****         BOTH,
  37:../../libDaisy//src/per/dac.h ****     };
  38:../../libDaisy//src/per/dac.h **** 
  39:../../libDaisy//src/per/dac.h ****     /** Sets the Mode for the DAC channels.
  40:../../libDaisy//src/per/dac.h ****      **
  41:../../libDaisy//src/per/dac.h ****      ** Polling mode uses the blocking mode to transmit a single value at a time.
  42:../../libDaisy//src/per/dac.h ****      **
  43:../../libDaisy//src/per/dac.h ****      ** DMA mode uses a buffer, and periodically transmits it triggering a 
  44:../../libDaisy//src/per/dac.h ****      ** callback to fill the buffer when it is ready for more samples.
  45:../../libDaisy//src/per/dac.h ****      ***/
  46:../../libDaisy//src/per/dac.h ****     enum class Mode
  47:../../libDaisy//src/per/dac.h ****     {
  48:../../libDaisy//src/per/dac.h ****         POLLING,
  49:../../libDaisy//src/per/dac.h ****         DMA,
  50:../../libDaisy//src/per/dac.h ****     };
  51:../../libDaisy//src/per/dac.h **** 
  52:../../libDaisy//src/per/dac.h ****     /** Sets the number of bits per sample transmitted out of the DAC.
  53:../../libDaisy//src/per/dac.h ****      ** The output range will be: 0V - VDDA
  54:../../libDaisy//src/per/dac.h ****      ** The resolution will be roughly: bitdepth / (VDDA - 0V) 
  55:../../libDaisy//src/per/dac.h ****      ***/
  56:../../libDaisy//src/per/dac.h ****     enum class BitDepth
  57:../../libDaisy//src/per/dac.h ****     {
  58:../../libDaisy//src/per/dac.h ****         BITS_8,
  59:../../libDaisy//src/per/dac.h ****         BITS_12
  60:../../libDaisy//src/per/dac.h ****     };
  61:../../libDaisy//src/per/dac.h **** 
  62:../../libDaisy//src/per/dac.h ****     /** Sets whether the DAC output is buffered for higher drive ability. */
ARM GAS  C:\Users\theri\AppData\Local\Temp\cc3rAykC.s 			page 60


  63:../../libDaisy//src/per/dac.h ****     enum class BufferState
  64:../../libDaisy//src/per/dac.h ****     {
  65:../../libDaisy//src/per/dac.h ****         ENABLED,
  66:../../libDaisy//src/per/dac.h ****         DISABLED,
  67:../../libDaisy//src/per/dac.h ****     };
  68:../../libDaisy//src/per/dac.h **** 
  69:../../libDaisy//src/per/dac.h ****     /** Configuration structure for initializing the DAC structure. */
  70:../../libDaisy//src/per/dac.h ****     struct Config
  71:../../libDaisy//src/per/dac.h ****     {
  72:../../libDaisy//src/per/dac.h ****         /** Target Samplerate in Hz used to configure the internal 
  73:../../libDaisy//src/per/dac.h ****          ** timebase for DMA mode. Does nothing in POLLING mode.
  74:../../libDaisy//src/per/dac.h ****          ** If the value is 0 at Init time this will default to 48000Hz 
  75:../../libDaisy//src/per/dac.h ****          ** otherwise the driver will attempt meet the target.*/
  76:../../libDaisy//src/per/dac.h ****         uint32_t target_samplerate;
  77:../../libDaisy//src/per/dac.h **** 
  78:../../libDaisy//src/per/dac.h ****         Channel     chn;
  79:../../libDaisy//src/per/dac.h ****         Mode        mode;
  80:../../libDaisy//src/per/dac.h ****         BitDepth    bitdepth;
  81:../../libDaisy//src/per/dac.h ****         BufferState buff_state;
  82:../../libDaisy//src/per/dac.h ****     };
  83:../../libDaisy//src/per/dac.h **** 
  84:../../libDaisy//src/per/dac.h ****     DacHandle() : pimpl_(nullptr) {}
 1636              		.loc 15 84 33 view .LVU465
 1637 000a 8362     		str	r3, [r0, #40]
 1638              	.LBE406:
 1639              	.LBE405:
 1640              	.LBE404:
 1641              	.LBE417:
 1642              	.LBE421:
  30:DSF.cpp       **** Switch              button;
 1643              		.loc 11 30 21 view .LVU466
 1644 000c 2246     		mov	r2, r4
 1645 000e 1A49     		ldr	r1, .L63+8
  33:DSF.cpp       **** 
 1646              		.loc 11 33 21 view .LVU467
 1647 0010 1A4D     		ldr	r5, .L63+12
 1648              	.LBB422:
 1649              	.LBB418:
 1650              	.LBB407:
 1651              	.LBB408:
 1652              	.LBB409:
  95:../../libDaisy//src/hid/audio.h ****     ~AudioHandle() {}
 1653              		.loc 8 95 35 view .LVU468
 1654 0012 C0E90333 		strd	r3, r3, [r0, #12]
 1655              	.LVL106:
  95:../../libDaisy//src/hid/audio.h ****     ~AudioHandle() {}
 1656              		.loc 8 95 35 view .LVU469
 1657              	.LBE409:
 1658              	.LBE408:
 1659              	.LBE407:
 1660              	.LBB410:
 1661              	.LBI410:
  92:../../libDaisy//src/per/adc.h ****     ~AdcHandle() {}
 1662              		.loc 7 92 5 is_stmt 1 view .LVU470
  92:../../libDaisy//src/per/adc.h ****     ~AdcHandle() {}
 1663              		.loc 7 92 5 is_stmt 0 view .LVU471
 1664              	.LBE410:
ARM GAS  C:\Users\theri\AppData\Local\Temp\cc3rAykC.s 			page 61


 1665              	.LBB411:
 1666              	.LBI411:
  40:../../libDaisy//src/hid/usb.h **** 
 1667              		.loc 6 40 5 is_stmt 1 view .LVU472
  40:../../libDaisy//src/hid/usb.h **** 
 1668              		.loc 6 40 5 is_stmt 0 view .LVU473
 1669              	.LBE411:
 1670              	.LBB412:
 1671              	.LBI397:
  28:../../libDaisy//src/dev/codec_pcm3060.h ****     ~Pcm3060() {}
 1672              		.loc 5 28 5 is_stmt 1 view .LVU474
 1673              	.LBB403:
 1674              	.LBB402:
 1675              	.LBI399:
 1676              		.loc 14 82 5 view .LVU475
 1677              		.loc 14 82 5 is_stmt 0 view .LVU476
 1678              	.LBE402:
 1679              	.LBE403:
 1680              	.LBE412:
 1681              	.LBB413:
 1682              	.LBI404:
 1683              		.loc 15 84 5 is_stmt 1 view .LVU477
 1684              		.loc 15 84 5 is_stmt 0 view .LVU478
 1685              	.LBE413:
 1686              	.LBE418:
 1687              	.LBE422:
 1688              	.LBE432:
 1689              	.LBE435:
  64:../../libDaisy//src/daisy_patch_sm.h ****         ~DaisyPatchSM() {}
 1690              		.loc 3 64 24 is_stmt 1 view .LVU479
 1691              	.LBB436:
 1692              	.LBB433:
 1693              	.LBB423:
 1694              	.LBB419:
 1695              	.LBB414:
 1696              	.LBI414:
  20:../../libDaisy//src/hid/gatein.h ****     /** GateIn~
 1697              		.loc 4 20 5 view .LVU480
  20:../../libDaisy//src/hid/gatein.h ****     /** GateIn~
 1698              		.loc 4 20 5 is_stmt 0 view .LVU481
 1699              	.LBE414:
 1700              	.LBB415:
 1701              	.LBI415:
  20:../../libDaisy//src/hid/gatein.h ****     /** GateIn~
 1702              		.loc 4 20 5 is_stmt 1 view .LVU482
  20:../../libDaisy//src/hid/gatein.h ****     /** GateIn~
 1703              		.loc 4 20 5 is_stmt 0 view .LVU483
 1704              	.LBE415:
 1705              	.LBE419:
 1706              	.LBE423:
  30:DSF.cpp       **** Switch              button;
 1707              		.loc 11 30 21 view .LVU484
 1708 0016 FFF7FEFF 		bl	__aeabi_atexit
 1709              	.LVL107:
 1710              	.LBB424:
 1711              	.LBI424:
  41:../../libDaisy//src/hid/switch.h ****     ~Switch() {}
ARM GAS  C:\Users\theri\AppData\Local\Temp\cc3rAykC.s 			page 62


 1712              		.loc 1 41 5 is_stmt 1 view .LVU485
  41:../../libDaisy//src/hid/switch.h ****     ~Switch() {}
 1713              		.loc 1 41 5 is_stmt 0 view .LVU486
 1714              	.LBE424:
  31:DSF.cpp       **** Led                 led;
 1715              		.loc 11 31 21 view .LVU487
 1716 001a 2246     		mov	r2, r4
 1717 001c 1849     		ldr	r1, .L63+16
 1718 001e 1948     		ldr	r0, .L63+20
 1719 0020 FFF7FEFF 		bl	__aeabi_atexit
 1720              	.LVL108:
 1721              	.LBB425:
 1722              	.LBI425:
  24:../../libDaisy//src/hid/led.h ****     ~Led() {}
 1723              		.loc 2 24 5 is_stmt 1 view .LVU488
  24:../../libDaisy//src/hid/led.h ****     ~Led() {}
 1724              		.loc 2 24 5 is_stmt 0 view .LVU489
 1725              	.LBE425:
  32:DSF.cpp       **** Svf                 svfL1, svfL2, svfR1, svfR2, highPassL, highPassR;
 1726              		.loc 11 32 21 view .LVU490
 1727 0024 2246     		mov	r2, r4
 1728 0026 1849     		ldr	r1, .L63+24
 1729 0028 1848     		ldr	r0, .L63+28
 1730 002a FFF7FEFF 		bl	__aeabi_atexit
 1731              	.LVL109:
 1732              	.LBB426:
 1733              	.LBI426:
  21:../../DaisySP//Source/Filters/svf.h ****     ~Svf() {}
 1734              		.loc 10 21 5 is_stmt 1 view .LVU491
  21:../../DaisySP//Source/Filters/svf.h ****     ~Svf() {}
 1735              		.loc 10 21 5 is_stmt 0 view .LVU492
 1736              	.LBE426:
  33:DSF.cpp       **** 
 1737              		.loc 11 33 21 view .LVU493
 1738 002e 2246     		mov	r2, r4
 1739 0030 2946     		mov	r1, r5
 1740 0032 1748     		ldr	r0, .L63+32
 1741 0034 FFF7FEFF 		bl	__aeabi_atexit
 1742              	.LVL110:
 1743              	.LBB427:
 1744              	.LBI427:
  21:../../DaisySP//Source/Filters/svf.h ****     ~Svf() {}
 1745              		.loc 10 21 5 is_stmt 1 view .LVU494
  21:../../DaisySP//Source/Filters/svf.h ****     ~Svf() {}
 1746              		.loc 10 21 5 is_stmt 0 view .LVU495
 1747              	.LBE427:
  33:DSF.cpp       **** 
 1748              		.loc 11 33 28 view .LVU496
 1749 0038 2246     		mov	r2, r4
 1750 003a 2946     		mov	r1, r5
 1751 003c 1548     		ldr	r0, .L63+36
 1752 003e FFF7FEFF 		bl	__aeabi_atexit
 1753              	.LVL111:
 1754              	.LBB428:
 1755              	.LBI428:
  21:../../DaisySP//Source/Filters/svf.h ****     ~Svf() {}
 1756              		.loc 10 21 5 is_stmt 1 view .LVU497
ARM GAS  C:\Users\theri\AppData\Local\Temp\cc3rAykC.s 			page 63


  21:../../DaisySP//Source/Filters/svf.h ****     ~Svf() {}
 1757              		.loc 10 21 5 is_stmt 0 view .LVU498
 1758              	.LBE428:
  33:DSF.cpp       **** 
 1759              		.loc 11 33 35 view .LVU499
 1760 0042 2246     		mov	r2, r4
 1761 0044 2946     		mov	r1, r5
 1762 0046 1448     		ldr	r0, .L63+40
 1763 0048 FFF7FEFF 		bl	__aeabi_atexit
 1764              	.LVL112:
 1765              	.LBB429:
 1766              	.LBI429:
  21:../../DaisySP//Source/Filters/svf.h ****     ~Svf() {}
 1767              		.loc 10 21 5 is_stmt 1 view .LVU500
  21:../../DaisySP//Source/Filters/svf.h ****     ~Svf() {}
 1768              		.loc 10 21 5 is_stmt 0 view .LVU501
 1769              	.LBE429:
  33:DSF.cpp       **** 
 1770              		.loc 11 33 42 view .LVU502
 1771 004c 2246     		mov	r2, r4
 1772 004e 2946     		mov	r1, r5
 1773 0050 1248     		ldr	r0, .L63+44
 1774 0052 FFF7FEFF 		bl	__aeabi_atexit
 1775              	.LVL113:
 1776              	.LBB430:
 1777              	.LBI430:
  21:../../DaisySP//Source/Filters/svf.h ****     ~Svf() {}
 1778              		.loc 10 21 5 is_stmt 1 view .LVU503
  21:../../DaisySP//Source/Filters/svf.h ****     ~Svf() {}
 1779              		.loc 10 21 5 is_stmt 0 view .LVU504
 1780              	.LBE430:
  33:DSF.cpp       **** 
 1781              		.loc 11 33 49 view .LVU505
 1782 0056 2246     		mov	r2, r4
 1783 0058 2946     		mov	r1, r5
 1784 005a 1148     		ldr	r0, .L63+48
 1785 005c FFF7FEFF 		bl	__aeabi_atexit
 1786              	.LVL114:
 1787              	.LBB431:
 1788              	.LBI431:
  21:../../DaisySP//Source/Filters/svf.h ****     ~Svf() {}
 1789              		.loc 10 21 5 is_stmt 1 view .LVU506
  21:../../DaisySP//Source/Filters/svf.h ****     ~Svf() {}
 1790              		.loc 10 21 5 is_stmt 0 view .LVU507
 1791              	.LBE431:
  33:DSF.cpp       **** 
 1792              		.loc 11 33 60 view .LVU508
 1793 0060 2246     		mov	r2, r4
 1794 0062 2946     		mov	r1, r5
 1795 0064 0F48     		ldr	r0, .L63+52
 1796              	.LBE433:
 1797              	.LBE436:
 1798              		.loc 11 183 1 view .LVU509
 1799 0066 BDE83840 		pop	{r3, r4, r5, lr}
 1800              		.cfi_restore 14
 1801              		.cfi_restore 5
 1802              		.cfi_restore 4
ARM GAS  C:\Users\theri\AppData\Local\Temp\cc3rAykC.s 			page 64


 1803              		.cfi_restore 3
 1804              		.cfi_def_cfa_offset 0
 1805              	.LBB437:
 1806              	.LBB434:
  33:DSF.cpp       **** 
 1807              		.loc 11 33 60 view .LVU510
 1808 006a FFF7FEBF 		b	__aeabi_atexit
 1809              	.LVL115:
 1810              	.L64:
 1811 006e 00BF     		.align	2
 1812              	.L63:
 1813 0070 00000000 		.word	.LANCHOR0
 1814 0074 00000000 		.word	__dso_handle
 1815 0078 00000000 		.word	_ZN5daisy8patch_sm12DaisyPatchSMD1Ev
 1816 007c 00000000 		.word	_ZN7daisysp3SvfD1Ev
 1817 0080 00000000 		.word	_ZN5daisy6SwitchD1Ev
 1818 0084 00000000 		.word	.LANCHOR1
 1819 0088 00000000 		.word	_ZN5daisy3LedD1Ev
 1820 008c 00000000 		.word	.LANCHOR15
 1821 0090 00000000 		.word	.LANCHOR20
 1822 0094 00000000 		.word	.LANCHOR21
 1823 0098 00000000 		.word	.LANCHOR22
 1824 009c 00000000 		.word	.LANCHOR23
 1825 00a0 00000000 		.word	.LANCHOR24
 1826 00a4 00000000 		.word	.LANCHOR25
 1827              	.LBE434:
 1828              	.LBE437:
 1829              		.cfi_endproc
 1830              	.LFE5354:
 1832              		.section	.init_array,"aw",%init_array
 1833              		.align	2
 1834 0000 00000000 		.word	_GLOBAL__sub_I_patch(target1)
 1835              		.global	buttonState
 1836              		.global	buttonValue
 1837              		.global	samplerate
 1838              		.global	hpCutoff
 1839              		.global	exponent
 1840              		.global	imageR2
 1841              		.global	imageR1
 1842              		.global	imageL2
 1843              		.global	imageL1
 1844              		.global	spreadCV
 1845              		.global	spreadKnob
 1846              		.global	spread
 1847              		.global	rmCV
 1848              		.global	rmKnob
 1849              		.global	resonance
 1850              		.global	cutoffSquared
 1851              		.global	fmCV2
 1852              		.global	fmCV1
 1853              		.global	fmKnob
 1854              		.global	cutoff
 1855              		.global	highPassR
 1856              		.global	highPassL
 1857              		.global	svfR2
 1858              		.global	svfR1
 1859              		.global	svfL2
ARM GAS  C:\Users\theri\AppData\Local\Temp\cc3rAykC.s 			page 65


 1860              		.global	svfL1
 1861              		.global	led
 1862              		.global	button
 1863              		.global	patch
 1864              		.section	.bss.button,"aw",%nobits
 1865              		.align	2
 1866              		.set	.LANCHOR1,. + 0
 1869              	button:
 1870 0000 00000000 		.space	16
 1870      00000000 
 1870      00000000 
 1870      00000000 
 1871              		.section	.bss.buttonState,"aw",%nobits
 1874              	buttonState:
 1875 0000 00       		.space	1
 1876              		.section	.bss.buttonValue,"aw",%nobits
 1877              		.align	2
 1878              		.set	.LANCHOR2,. + 0
 1881              	buttonValue:
 1882 0000 00000000 		.space	4
 1883              		.section	.bss.cutoff,"aw",%nobits
 1884              		.align	2
 1885              		.set	.LANCHOR11,. + 0
 1888              	cutoff:
 1889 0000 00000000 		.space	4
 1890              		.section	.bss.cutoffSquared,"aw",%nobits
 1891              		.align	2
 1892              		.set	.LANCHOR14,. + 0
 1895              	cutoffSquared:
 1896 0000 00000000 		.space	4
 1897              		.section	.bss.exponent,"aw",%nobits
 1898              		.align	2
 1901              	exponent:
 1902 0000 00000000 		.space	4
 1903              		.section	.bss.fmCV1,"aw",%nobits
 1904              		.align	2
 1905              		.set	.LANCHOR4,. + 0
 1908              	fmCV1:
 1909 0000 00000000 		.space	4
 1910              		.section	.bss.fmCV2,"aw",%nobits
 1911              		.align	2
 1912              		.set	.LANCHOR5,. + 0
 1915              	fmCV2:
 1916 0000 00000000 		.space	4
 1917              		.section	.bss.fmKnob,"aw",%nobits
 1918              		.align	2
 1919              		.set	.LANCHOR3,. + 0
 1922              	fmKnob:
 1923 0000 00000000 		.space	4
 1924              		.section	.bss.highPassL,"aw",%nobits
 1925              		.align	2
 1926              		.set	.LANCHOR24,. + 0
 1929              	highPassL:
 1930 0000 00000000 		.space	76
 1930      00000000 
 1930      00000000 
 1930      00000000 
ARM GAS  C:\Users\theri\AppData\Local\Temp\cc3rAykC.s 			page 66


 1930      00000000 
 1931              		.section	.bss.highPassR,"aw",%nobits
 1932              		.align	2
 1933              		.set	.LANCHOR25,. + 0
 1936              	highPassR:
 1937 0000 00000000 		.space	76
 1937      00000000 
 1937      00000000 
 1937      00000000 
 1937      00000000 
 1938              		.section	.bss.hpCutoff,"aw",%nobits
 1939              		.align	2
 1940              		.set	.LANCHOR10,. + 0
 1943              	hpCutoff:
 1944 0000 00000000 		.space	4
 1945              		.section	.bss.imageL1,"aw",%nobits
 1946              		.align	2
 1947              		.set	.LANCHOR16,. + 0
 1950              	imageL1:
 1951 0000 00000000 		.space	4
 1952              		.section	.bss.imageL2,"aw",%nobits
 1953              		.align	2
 1954              		.set	.LANCHOR17,. + 0
 1957              	imageL2:
 1958 0000 00000000 		.space	4
 1959              		.section	.bss.imageR1,"aw",%nobits
 1960              		.align	2
 1961              		.set	.LANCHOR18,. + 0
 1964              	imageR1:
 1965 0000 00000000 		.space	4
 1966              		.section	.bss.imageR2,"aw",%nobits
 1967              		.align	2
 1968              		.set	.LANCHOR19,. + 0
 1971              	imageR2:
 1972 0000 00000000 		.space	4
 1973              		.section	.bss.led,"aw",%nobits
 1974              		.align	2
 1975              		.set	.LANCHOR15,. + 0
 1978              	led:
 1979 0000 00000000 		.space	28
 1979      00000000 
 1979      00000000 
 1979      00000000 
 1979      00000000 
 1980              		.section	.bss.patch,"aw",%nobits
 1981              		.align	2
 1982              		.set	.LANCHOR0,. + 0
 1985              	patch:
 1986 0000 00000000 		.space	464
 1986      00000000 
 1986      00000000 
 1986      00000000 
 1986      00000000 
 1987              		.section	.bss.resonance,"aw",%nobits
 1988              		.align	2
 1989              		.set	.LANCHOR12,. + 0
 1992              	resonance:
ARM GAS  C:\Users\theri\AppData\Local\Temp\cc3rAykC.s 			page 67


 1993 0000 00000000 		.space	4
 1994              		.section	.bss.rmCV,"aw",%nobits
 1995              		.align	2
 1996              		.set	.LANCHOR7,. + 0
 1999              	rmCV:
 2000 0000 00000000 		.space	4
 2001              		.section	.bss.rmKnob,"aw",%nobits
 2002              		.align	2
 2003              		.set	.LANCHOR6,. + 0
 2006              	rmKnob:
 2007 0000 00000000 		.space	4
 2008              		.section	.bss.samplerate,"aw",%nobits
 2009              		.align	2
 2010              		.set	.LANCHOR26,. + 0
 2013              	samplerate:
 2014 0000 00000000 		.space	4
 2015              		.section	.bss.spread,"aw",%nobits
 2016              		.align	2
 2017              		.set	.LANCHOR13,. + 0
 2020              	spread:
 2021 0000 00000000 		.space	4
 2022              		.section	.bss.spreadCV,"aw",%nobits
 2023              		.align	2
 2024              		.set	.LANCHOR9,. + 0
 2027              	spreadCV:
 2028 0000 00000000 		.space	4
 2029              		.section	.bss.spreadKnob,"aw",%nobits
 2030              		.align	2
 2031              		.set	.LANCHOR8,. + 0
 2034              	spreadKnob:
 2035 0000 00000000 		.space	4
 2036              		.section	.bss.svfL1,"aw",%nobits
 2037              		.align	2
 2038              		.set	.LANCHOR20,. + 0
 2041              	svfL1:
 2042 0000 00000000 		.space	76
 2042      00000000 
 2042      00000000 
 2042      00000000 
 2042      00000000 
 2043              		.section	.bss.svfL2,"aw",%nobits
 2044              		.align	2
 2045              		.set	.LANCHOR21,. + 0
 2048              	svfL2:
 2049 0000 00000000 		.space	76
 2049      00000000 
 2049      00000000 
 2049      00000000 
 2049      00000000 
 2050              		.section	.bss.svfR1,"aw",%nobits
 2051              		.align	2
 2052              		.set	.LANCHOR22,. + 0
 2055              	svfR1:
 2056 0000 00000000 		.space	76
 2056      00000000 
 2056      00000000 
 2056      00000000 
ARM GAS  C:\Users\theri\AppData\Local\Temp\cc3rAykC.s 			page 68


 2056      00000000 
 2057              		.section	.bss.svfR2,"aw",%nobits
 2058              		.align	2
 2059              		.set	.LANCHOR23,. + 0
 2062              	svfR2:
 2063 0000 00000000 		.space	76
 2063      00000000 
 2063      00000000 
 2063      00000000 
 2063      00000000 
 2064              		.text
 2065              	.Letext0:
 2066              		.file 16 "c:\\program files\\daisytoolchain\\arm-none-eabi\\include\\machine\\_default_types.h"
 2067              		.file 17 "c:\\program files\\daisytoolchain\\arm-none-eabi\\include\\sys\\_stdint.h"
 2068              		.file 18 "c:\\program files\\daisytoolchain\\arm-none-eabi\\include\\stdint.h"
 2069              		.file 19 "c:\\program files\\daisytoolchain\\lib\\gcc\\arm-none-eabi\\10.2.1\\include\\stddef.h"
 2070              		.file 20 "c:\\program files\\daisytoolchain\\arm-none-eabi\\include\\c++\\10.2.1\\bits\\std_abs.h"
 2071              		.file 21 "c:\\program files\\daisytoolchain\\arm-none-eabi\\include\\c++\\10.2.1\\cstdlib"
 2072              		.file 22 "c:\\program files\\daisytoolchain\\arm-none-eabi\\include\\c++\\10.2.1\\cstdint"
 2073              		.file 23 "c:\\program files\\daisytoolchain\\arm-none-eabi\\include\\c++\\10.2.1\\type_traits"
 2074              		.file 24 "c:\\program files\\daisytoolchain\\arm-none-eabi\\include\\c++\\10.2.1\\debug\\debug.h"
 2075              		.file 25 "c:\\program files\\daisytoolchain\\arm-none-eabi\\include\\c++\\10.2.1\\arm-none-eabi\\t
 2076              		.file 26 "c:\\program files\\daisytoolchain\\arm-none-eabi\\include\\c++\\10.2.1\\bits\\algorithmf
 2077              		.file 27 "c:\\program files\\daisytoolchain\\arm-none-eabi\\include\\c++\\10.2.1\\bits\\stl_pair.h
 2078              		.file 28 "c:\\program files\\daisytoolchain\\arm-none-eabi\\include\\c++\\10.2.1\\bits\\exception_
 2079              		.file 29 "c:\\program files\\daisytoolchain\\arm-none-eabi\\include\\c++\\10.2.1\\cstdarg"
 2080              		.file 30 "c:\\program files\\daisytoolchain\\arm-none-eabi\\include\\c++\\10.2.1\\cstdio"
 2081              		.file 31 "c:\\program files\\daisytoolchain\\arm-none-eabi\\include\\c++\\10.2.1\\cstring"
 2082              		.file 32 "c:\\program files\\daisytoolchain\\arm-none-eabi\\include\\c++\\10.2.1\\cwchar"
 2083              		.file 33 "c:\\program files\\daisytoolchain\\arm-none-eabi\\include\\c++\\10.2.1\\clocale"
 2084              		.file 34 "c:\\program files\\daisytoolchain\\arm-none-eabi\\include\\c++\\10.2.1\\bits\\basic_stri
 2085              		.file 35 "c:\\program files\\daisytoolchain\\arm-none-eabi\\include\\c++\\10.2.1\\bits\\stl_tempbu
 2086              		.file 36 "c:\\program files\\daisytoolchain\\arm-none-eabi\\include\\c++\\10.2.1\\bits\\predefined
 2087              		.file 37 "c:\\program files\\daisytoolchain\\arm-none-eabi\\include\\sys\\_types.h"
 2088              		.file 38 "c:\\program files\\daisytoolchain\\arm-none-eabi\\include\\sys\\reent.h"
 2089              		.file 39 "c:\\program files\\daisytoolchain\\arm-none-eabi\\include\\sys\\lock.h"
 2090              		.file 40 "c:\\program files\\daisytoolchain\\arm-none-eabi\\include\\math.h"
 2091              		.file 41 "c:\\program files\\daisytoolchain\\arm-none-eabi\\include\\stdlib.h"
 2092              		.file 42 "c:\\program files\\daisytoolchain\\arm-none-eabi\\include\\c++\\10.2.1\\math.h"
 2093              		.file 43 "c:\\program files\\daisytoolchain\\arm-none-eabi\\include\\c++\\10.2.1\\stdlib.h"
 2094              		.file 44 "../../libDaisy//src/daisy_core.h"
 2095              		.file 45 "../../libDaisy//src/per/tim.h"
 2096              		.file 46 "../../libDaisy//src/per/sai.h"
 2097              		.file 47 "../../libDaisy//src/hid/ctrl.h"
 2098              		.file 48 "../../libDaisy//src/util/wav_format.h"
 2099              		.file 49 "../../libDaisy//src/dev/max11300.h"
 2100              		.file 50 "../../libDaisy//src/per/gpio.h"
 2101              		.file 51 "../../libDaisy//src/dev/sdram.h"
 2102              		.file 52 "c:\\program files\\daisytoolchain\\lib\\gcc\\arm-none-eabi\\10.2.1\\include\\stdarg.h"
 2103              		.file 53 "c:\\program files\\daisytoolchain\\arm-none-eabi\\include\\stdio.h"
 2104              		.file 54 "c:\\program files\\daisytoolchain\\arm-none-eabi\\include\\string.h"
 2105              		.file 55 "../../DaisySP//Source/Control/adenv.h"
 2106              		.file 56 "../../DaisySP//Source/Utility/dsp.h"
 2107              		.file 57 "c:\\program files\\daisytoolchain\\arm-none-eabi\\include\\wchar.h"
 2108              		.file 58 "c:\\program files\\daisytoolchain\\arm-none-eabi\\include\\locale.h"
 2109              		.file 59 "../../libDaisy//src/dev/sr_595.h"
 2110              		.file 60 "<built-in>"
ARM GAS  C:\Users\theri\AppData\Local\Temp\cc3rAykC.s 			page 69


ARM GAS  C:\Users\theri\AppData\Local\Temp\cc3rAykC.s 			page 70

